     1                                 %line 1+1 disasm64.asm
     2                                 
     3                                 
     4                                 
     5                                 
     6                                 
     7                                 
     8                                 
     9                                 
    10                                 
    11                                 
    12                                 
    13                                 
    14                                 
    15                                 
    16                                 
    17                                 
    18                                 
    19                                 
    20                                 
    21                                 %line 2+1 nasmmac.inc
    22                                 
    23                                 %line 10+1 nasmmac.inc
    24                                 
    25                                 %line 18+1 nasmmac.inc
    26                                 
    27                                 %line 25+1 nasmmac.inc
    28                                 
    29                                 %line 32+1 nasmmac.inc
    30                                 
    31                                 %line 38+1 nasmmac.inc
    32                                 
    33                                 %line 43+1 nasmmac.inc
    34                                 
    35                                 %line 49+1 nasmmac.inc
    36                                 
    37                                 %line 21+1 disasm64.asm
    38                                 
    39                                 [section .data]
    40 00000000 0000                    argCount: db 0, 0
    41                                 
    42 00000002 0000000000000000        fileNameAddr: dq 0
    43 0000000A 7200                    fileMode: db "r",0
    44 0000000C 0000000000000000        filePointer: dq 0
    45 00000014 0000000000000000        fileSize: dq 0
    46 0000001C 0000                    fileChar: dw 0
    47                                 
    48 0000001E 50726164696E697320-     txtFileName: db "Pradinis failas: %s",10,0
    49 0000001E 6661696C61733A2025-
    50 0000001E 730A00             
    51 00000033 4661696C6F20647964-     txtFileSize: db "Failo dydis: %d (baitu)",10,0
    52 00000033 69733A202564202862-
    53 00000033 61697475290A00     
    54 0000004C 4E65706176796B6F20-     txtFileNotFound: db "Nepavyko atidaryti failo",0
    55 0000004C 617469646172797469-
    56 0000004C 206661696C6F00     
    57 00000065 4661696C6F20736B61-     txtEndOfFile: db "Failo skaitymas baigtas",0
    58 00000065 6974796D6173206261-
    59 00000065 696774617300       
    60                                 
    61 0000007D 0000000000000000        addrBuff dq 0
    62                                 
    63                                 [section .text]
    64                                 
    65                                 [global main]
    66                                 main:
    67 00000000 55                      push rbp
    68 00000001 4889E5                  mov rbp, rsp
    69 00000004 4883EC20                sub rsp, 20
    70                                 
    71                                 
    72                                 
    73                                 
    74                                 
    75 00000008 83C130                  add ecx, '0'
    76 0000000B 880C25[00000000]        mov [argCount], cl
    77                                 
    78 00000012 4889D0                  mov rax, rdx
    79 00000015 4883C008                add rax, 08
    80 00000019 488B10                  mov rdx,[rax]
    81 0000001C 48891425[00000000]      mov [fileNameAddr], rdx
    82                                 
    83 00000024 E82B000000              call procSkaitykFaila
    84 00000029 488B0425[00000000]      mov rax, [filePointer]
    85 00000031 4883F800                cmp rax, 0
    86 00000035 7415                    je .the_end
    87                                 
    88                                 
    89                                 
    90                                 
    91                                 
    92                                 
    93 00000037 488B0C25[00000000]      mov rcx, [fileSize]
    94 0000003F 488B1425[00000000]      mov rdx, [addrBuff]
    95 00000047 E86F0A0000              call procDisasambliuok
    96                                 
    97                                 
    98                                 
    99                                 
   100                                 
   101                                 
   102                                 
   103                                 
   104                                 
   105                                 
   106                                 
   107                                 
   108                                 
   109                                 
   110                                 
   111                                 
   112                                 
   113                                 
   114                                 
   115                                 
   116 0000004C EBFE                    jmp .the_end
   117                                 
   118                                 .the_end:
   119                                 
   120 0000004E B800000000              mov eax,0
   121 00000053 4883C420                add rsp, 20
   122 00000057 5D                      pop rbp
   123 00000058 C3                      ret
   124                                 
   125                                 
   126                                 
   127                                 
   128                                 
   129                                 
   130                                 procSkaitykFaila:
   131 00000059 55                      push rbp
   132 0000005A 4889E5                  mov rbp, rsp
   133 0000005D 4883EC20                sub rsp, 20
   134                                 
   135                                 
   136 00000061 48C7C1[00000000]        mov rcx,txtFileName
   137 00000068 488B1425[00000000]      mov rdx,[fileNameAddr]
   138 00000070 E8(F6FFFFFF)            call printf
   139                                 
   140                                 
   141 00000075 4831C0                  xor rax,rax
   142 00000078 488B0C25[00000000]      mov rcx, [fileNameAddr]
   143 00000080 E8BA0C0000              call procFailoDydis
   144 00000085 48890425[00000000]      mov [fileSize], rax
   145                                 
   146 0000008D 48C7C1[00000000]        mov rcx,txtFileSize
   147 00000094 488B1425[00000000]      mov rdx,[fileSize]
   148 0000009C E8(F6FFFFFF)            call printf
   149                                 
   150                                 
   151 000000A1 488B0C25[00000000]      mov rcx, [fileSize]
   152 000000A9 E8(F6FFFFFF)            call malloc
   153 000000AE 48890425[00000000]      mov [addrBuff],rax
   154                                 
   155                                 
   156                                 
   157 000000B6 488B0C25[00000000]      mov rcx, [fileNameAddr]
   158 000000BE 48C7C2[00000000]        mov rdx, fileMode
   159 000000C5 E8(F6FFFFFF)            call fopen
   160 000000CA 48890425[00000000]      mov [filePointer], rax
   161 000000D2 4883F800                cmp rax, 0
   162 000000D6 7431                    je .file_not_found
   163                                 
   164 000000D8 488B0C25[00000000]      mov rcx, [addrBuff]
   165 000000E0 488B1425[00000000]      mov rdx, [fileSize]
   166 000000E8 49C7C001000000          mov r8, 1
   167 000000EF 4C8B0C25[00000000]      mov r9, [filePointer]
   168 000000F7 E8(F6FFFFFF)            call fread
   169                                 
   170                                 
   171 000000FC 488B0C25[00000000]      mov rcx, [filePointer]
   172 00000104 E8(F6FFFFFF)            call fclose
   173                                 
   174 00000109 EB0C                    jmp .the_end
   175                                  .file_not_found
   176 0000010B 48C7C1[00000000]        mov rcx,txtFileNotFound
   177 00000112 E8(F6FFFFFF)            call puts
   178 00000117 EBFE                    jmp .the_end
   179                                  .the_end
   180 00000119 B800000000              mov eax,0
   181 0000011E 4883C420                add rsp, 20
   182 00000122 5D                      pop rbp
   183 00000123 C3                      ret
   184                                 
   185                                 
   186                                 %line 1+1 mnemonics.asm
   187                                 [section .data]
   188 00000085 415800435800445800-    regNames16 db 'AX',0,'CX',0,'DX',0,'BX',0,'SP',0,'BP',0,'SI',0,'DI',0
   189 00000085 425800535000425000-
   190 00000085 534900444900       
   191 0000009D 414C00434C00444C00-    regNames8 db 'AL',0,'CL',0,'DL',0,'BL',0,'AH',0,'CH',0,'DH',0,'BH',0
   192 0000009D 424C00414800434800-
   193 0000009D 444800424800       
   194 000000B5 455300435300535300-    regNamesSeg db 'ES',0,'CS',0,'SS',0,'DS'
   195 000000B5 4453               
   196 000000C0 5B42582B534900         dispNames db '[BX+SI',0
   197 000000C7 5B42582B444900          db '[BX+DI',0
   198 000000CE 5B42502B534900          db '[BP+SI',0
   199 000000D5 5B42502B444900          db '[BP+DI',0
   200 000000DC 5B534900000000          db '[SI',0,0,0,0,
   201 000000E3 5B444900000000          db '[DI',0,0,0,0,
   202 000000EA 5B425000000000          db '[BP',0,0,0,0,
   203 000000F1 5B425800000000          db '[BX',0,0,0,0,
   204                                 
   205                                 op1byte
   206                                 
   207 000000F8 F04C4F434B20202000      db 0F0
   208                                 
   209 00000101 9B5741495420202000      db 09B
   210 0000010A F4484C542020202000      db 0F4
   211 00000113 FB5354492020202000      db 0FB
   212 0000011C FA434C492020202000      db 0FA
   213 00000125 FD5354442020202000      db 0FD
   214 0000012E FC434C442020202000      db 0FC
   215 00000137 F95354432020202000      db 0F9
   216 00000140 F5434D432020202000      db 0F5
   217 00000149 F8434C432020202000      db 0F8
   218 00000152 CF4952455420202000      db 0CF
   219 0000015B CE494E544F20202000      db 0CE
   220 00000164 CB5245544620202000      db 0CB
   221 0000016D C35245542020202000      db 0C3
   222 00000176 994357442020202000      db 099
   223 0000017F 984342572020202000      db 098
   224 00000188 2F4441532020202000      db 02F
   225 00000191 3F4141532020202000      db 03F
   226 0000019A 274241412020202000      db 027
   227 000001A3 374141412020202000      db 037
   228                                 
   229 000001AC 9D504F504620202000      db 09D
   230 000001B5 9C5055534846202000      db 09C
   231 000001BE 9E5341484620202000      db 09E
   232 000001C7 9F4C41484620202000      db 09F
   233                                 
   234 000001D0 D7584C415420202000      db 0D7
   235                                 
   236 000001D9 CC494E542033202000      db 0CC
   237                                 
   238 000001E2 F25245504E45202000      db 0F2
   239 000001EB F35245504520202000      db 0F3
   240                                 
   241 000001F4 A44D4F565342202000      db 0A4
   242 000001FD A54D4F565357202000      db 0A5
   243                                 
   244 00000206 A6434D505342202000      db 0A6
   245 0000020F A7434D505357202000      db 0A7
   246                                 
   247 00000218 AE5343415342202000      db 0AE
   248 00000221 AF5343415357202000      db 0AF
   249                                 
   250 0000022A AC4C4F445342202000      db 0AC
   251 00000233 AD4C4F445357202000      db 0AD
   252                                 
   253 0000023C AA53544F5342202000      db 0AA
   254 00000245 AB53544F5357202000      db 0AB
   255                                 
   256 0000024E EC494E20414C202000      db 0EC
   257 00000257 ED494E204158202000      db 0ED
   258                                 
   259 00000260 EE4F555420414C2000      db 0EE
   260 00000269 EF4F55542041582000      db 0EF
   261                                 
   262 00000272 065055534820455300      db 006
   263 0000027B 0E5055534820435300      db 00E
   264 00000284 165055534820535300      db 016
   265 0000028D 1E5055534820445300      db 01E
   266                                 
   267 00000296 07504F502045532000      db 007
   268 0000029F 17504F502053532000      db 017
   269 000002A8 1F504F502044532000      db 01F
   270                                 
   271 000002B1 904E4F502020202000      db 090
   272                                 
   273 000002BA 00                      db 000
   274                                 
   275                                 op1byteReg
   276                                 
   277 000002BB 505055534820202020-     db 050
   278 000002BB 00                 
   279 000002C5 58504F502020202020-     db 058
   280 000002C5 00                 
   281 000002CF 90584348472041582C-     db 090
   282 000002CF 00                 
   283 000002D9 40494E432020202020-     db 040
   284 000002D9 00                 
   285 000002E3 484445432020202020-     db 048
   286 000002E3 00                 
   287                                 
   288 000002ED 00                      db 000
   289                                 
   290                                 
   291                                 op1byte1data
   292                                 
   293 000002EE CB494E542020202000      db 0CB
   294 000002F7 E34A43585A20202000      db 0E3
   295 00000300 E04C4F4F504E5A2000      db 0E0
   296 00000309 E14C4F4F505A202000      db 0E1
   297 00000312 E24C4F4F5020202000      db 0E2
   298 0000031B 794A4E532020202000      db 079
   299 00000324 714A4E4F2020202000      db 071
   300 0000032D 7B4A4E502020202000      db 07B
   301 00000336 774A41202020202000      db 077
   302 0000033F 734A41452020202000      db 073
   303 00000348 7F4A47202020202000      db 07F
   304 00000351 7D4A47452020202000      db 07D
   305 0000035A 754A4E452020202000      db 075
   306 00000363 784A53202020202000      db 078
   307 0000036C 704A4F202020202000      db 070
   308 00000375 7A4A50452020202000      db 07A
   309 0000037E 764A42452020202000      db 076
   310 00000387 724A42202020202000      db 072
   311 00000390 7E4A4C452020202000      db 07E
   312 00000399 7C4A4C202020202000      db 07C
   313 000003A2 744A45202020202000      db 074
   314                                 
   315 000003AB E64F555420414C2C00      db 0E6
   316 000003B4 E74F55542041582C00      db 0E7
   317                                 
   318 000003BD E4494E2020414C2C00      db 0E4
   319 000003C6 E5494E202041582C00      db 0E5
   320                                 
   321 000003CF EB4A4D502020202000      db 0EB
   322                                 
   323 000003D8 D441414D2020202000      db 0D4
   324 000003E1 D54141442020202000      db 0D5
   325                                 
   326 000003EA 00                      db 000
   327                                 
   328                                 op1byte2data
   329                                 
   330 000003EB CA5245544620202000      db 0CA
   331 000003F4 C25245542020202000      db 0C2
   332 000003FD E94A4D502020202000      db 0E9
   333 00000406 E843414C4C20202000      db 0E8
   334 0000040F 00                      db 000
   335                                 
   336                                 op1byte4data
   337                                 
   338 00000410 EA4A4D504620202000      db 0EA
   339 00000419 9A43414C4C46202000      db 09A
   340 00000422 00000000                db 000
   341                                 
   342                                 op2byteModRegRm
   343                                 
   344                                 
   345 00000426 30584F522020202000      db 030
   346 0000042F 32584F522020202000      db 032
   347 00000438 084F52202020202000      db 008
   348 00000441 084F52202020202000      db 008
   349 0000044A 845445535420202000      db 084
   350 00000453 855445535420202000      db 085
   351 0000045C 20414E442020202000      db 020
   352 00000465 22414E442020202000      db 022
   353 0000046E 38434D502020202000      db 038
   354 00000477 3A434D502020202000      db 03A
   355 00000480 185353422020202000      db 018
   356 00000489 1A5353422020202000      db 01A
   357 00000492 285355422020202000      db 028
   358 0000049B 2A5355422020202000      db 02A
   359 000004A4 104144432020202000      db 010
   360 000004AD 124144432020202000      db 012
   361 000004B6 004144442020202000      db 000
   362 000004BF 024144442020202000      db 002
   363 000004C8 884D4F563120202000      db 088
   364 000004D1 8A4D4F563120202000      db 08A
   365 000004DA 865843484720202000      db 086
   366 000004E3 8B4C45412020202000      db 08B
   367 000004EC C54C44532020202000      db 0C5
   368 000004F5 C44C45532020202000      db 0C4
   369 000004FE FF                      db 0FF
   370                                 
   371                                 op2byteModRm
   372                                 
   373                                 
   374                                 
   375 000004FF FF0650555348202020-     db 0FF
   376 000004FF 00                 
   377 00000509 FF0243414C4C202020-     db 0FF
   378 00000509 00                 
   379 00000513 FF0343414C4C462020-     db 0FF
   380 00000513 00                 
   381 0000051D FF044A4D5020202020-     db 0FF
   382 0000051D 00                 
   383                                 
   384 00000527 8F00504F5020202020-     db 08F
   385 00000527 00                 
   386 00000531 FE00494E4320422020-     db 0FE
   387 00000531 00                 
   388 0000053B FF00494E4320572020-     db 0FF
   389 0000053B 00                 
   390 00000545 FE0144454320422020-     db 0FE
   391 00000545 00                 
   392 0000054F FF0144454320572020-     db 0FF
   393 0000054F 00                 
   394 00000559 F6024E4F5420422020-     db 0F6
   395 00000559 00                 
   396 00000563 F7024E4F5420572020-     db 0F7
   397 00000563 00                 
   398 0000056D F6034E454720422020-     db 0F6
   399 0000056D 00                 
   400 00000577 F7034E454720572020-     db 0F7
   401 00000577 00                 
   402 00000581 F6044D554C20422020-     db 0F6
   403 00000581 00                 
   404 0000058B F7044D554C20572020-     db 0F7
   405 0000058B 00                 
   406 00000595 F605494D554C204220-     db 0F6
   407 00000595 00                 
   408 0000059F F705494D554C205720-     db 0F7
   409 0000059F 00                 
   410 000005A9 F60644495620422020-     db 0F6
   411 000005A9 00                 
   412 000005B3 F70644495620572020-     db 0F7
   413 000005B3 00                 
   414 000005BD F60749444956204220-     db 0F6
   415 000005BD 00                 
   416 000005C7 F70749444956205720-     db 0F7
   417 000005C7 00                 
   418                                 
   419 000005D1 D00453484C20202020-     db 0D0
   420 000005D1 00                 
   421 000005DB D20453484C20202020-     db 0D2
   422 000005DB 00                 
   423                                 
   424 000005E5 D00553485220202020-     db 0D0
   425 000005E5 00                 
   426 000005EF D20553485220202020-     db 0D2
   427 000005EF 00                 
   428                                 
   429 000005F9 D00753415220202020-     db 0D0
   430 000005F9 00                 
   431 00000603 D20753415220202020-     db 0D2
   432 00000603 00                 
   433                                 
   434 0000060D D000524F4C20202020-     db 0D0
   435 0000060D 00                 
   436 00000617 D200524F4C20202020-     db 0D2
   437 00000617 00                 
   438                                 
   439 00000621 D001524F5220202020-     db 0D0
   440 00000621 00                 
   441 0000062B D201524F5220202020-     db 0D2
   442 0000062B 00                 
   443                                 
   444 00000635 D00252434C20202020-     db 0D0
   445 00000635 00                 
   446 0000063F D20252434C20202020-     db 0D2
   447 0000063F 00                 
   448                                 
   449 00000649 D00352435220202020-     db 0D0
   450 00000649 00                 
   451 00000653 D20352435220202020-     db 0D2
   452 00000653 00                 
   453                                 
   454 0000065D 8E004D4F5632202020-     db 08E
   455 0000065D 00                 
   456 00000667 8C004D4F5633202020-     db 08C
   457 00000667 00                 
   458                                 
   459 00000671 0000                    db 000
   460                                 
   461                                 op2byteModRmImmediate
   462                                 
   463                                 
   464 00000673 C6004D4F5634202020-     db 0C6
   465 00000673 00                 
   466 0000067D 800041444420202020-     db 080
   467 0000067D 00                 
   468 00000687 800241444320202020-     db 080
   469 00000687 00                 
   470 00000691 800553554220202020-     db 080
   471 00000691 00                 
   472 0000069B 800353424220202020-     db 080
   473 0000069B 00                 
   474 000006A5 8007434D5020202020-     db 080
   475 000006A5 00                 
   476 000006AF 8004414E4420202020-     db 080
   477 000006AF 00                 
   478 000006B9 F60054455354202020-     db 0F6
   479 000006B9 00                 
   480 000006C3 80014F522020202020-     db 080
   481 000006C3 00                 
   482 000006CD 8006584F5220202020-     db 080
   483 000006CD 00                 
   484 000006D7 0000                    db 000
   485                                 
   486                                 immediateAccumulator
   487                                 
   488 000006D9 04414444202000          db 004
   489 000006E0 14414443202000          db 014
   490 000006E7 2C535542202000          db 02C
   491 000006EE 1C535342202000          db 01C
   492 000006F5 3C434D50202000          db 03C
   493 000006FC 24414E44202000          db 024
   494 00000703 A8544553542000          db 0A8
   495 0000070A 0C4F5220202000          db 00C
   496 00000711 34584F52202000          db 034
   497 00000718 00                      db 0
   498                                 
   499                                 immediateToRegister
   500                                 
   501                                 
   502                                 
   503 00000719 B04D4F56352000          db 0B0
   504 00000720 00                      db 0
   505                                 memAccum
   506                                 
   507                                 
   508                                 
   509 00000721 A04D4F56362000          db 0A0
   510 00000728 00                      db 0
   511                                 
   512                                 [section .text]
   513                                 
   514                                 
   515                                 
   516                                 
   517                                 
   518                                 
   519                                 
   520                                 
   521                                 
   522                                 
   523                                 
   524                                 procPrintModRM
   525 00000124 55                      push rbp
   526                                 %line 282+0 mnemonics.asm
   527 00000125 4889E5                  mov rbp, rsp
   528 00000128 4883EC20                sub rsp, 20
   529                                 %line 283+1 mnemonics.asm
   530 0000012C 50                      push rax
   531                                 %line 283+0 mnemonics.asm
   532 0000012D 53                      push rbx
   533 0000012E 51                      push rcx
   534 0000012F 52                      push rdx
   535 00000130 4150                    push r8
   536                                 %line 284+1 mnemonics.asm
   537 00000132 EBFE                    jmp .begin
   538                                 [section .data]
   539 00000729 20776F726420707472-     .txtWordPtr db " word ptr ",0
   540 00000729 2000               
   541 00000734 206279746520707472-     .txtBytePtr db " byte ptr ",0
   542 00000734 2000               
   543 0000073F 257300                  .fmt db "%s",0
   544 00000742 2B307825785D00          .fmt2 db "+0x%x]",0
   545 00000749 5D00                    .fmt3 db "]",0
   546 0000074B 00                      .byte1 db 0
   547 0000074C 00                      .byte2 db 0
   548 0000074D 00                      .dispLow db 0
   549 0000074E 00                      .dispHigh db 0
   550 0000074F 00                      .mod db 0
   551                                 [section .text]
   552                                 .begin
   553 00000134 882C25[00000000]        mov [.byte1],ch
   554 0000013B 880C25[00000000]        mov [.byte2],cl
   555 00000142 881425[00000000]        mov [.dispLow], dl
   556 00000149 883425[00000000]        mov [.dispHigh], dh
   557                                 
   558 00000150 88CF                    mov bh,cl
   559 00000152 C0EF06                  shr bh,06
   560 00000155 80E703                  and bh,03
   561 00000158 883C25[00000000]        mov [.mod], bh
   562 0000015F 80FF03                  cmp bh,11
   563 00000162 7409                    je .rmIsRegister
   564                                 
   565                                 
   566                                 
   567                                 
   568                                 
   569                                 
   570                                 
   571                                 
   572                                 
   573                                 
   574 00000164 48C7C2[00000000]        mov rdx,dispNames
   575 0000016B B307                    mov bl, 7
   576 0000016D EB1C                    jmp .endMod
   577                                  .rmIsRegister
   578 0000016F F60425[00000000]01      test byte [.byte1],1
   579 00000177 7509                    jnz .word
   580 00000179 48C7C2[00000000]        mov rdx,regNames8
   581 00000180 B303                    mov bl, 3
   582 00000182 EB07                    jmp .endMod
   583                                  .word
   584 00000184 48C7C2[00000000]        mov rdx,regNames16
   585 0000018B B303                    mov bl, 3
   586                                  .endMod
   587                                 
   588                                 
   589                                 
   590                                 
   591 0000018D 4831C0                  xor rax,rax
   592 00000190 88D8                    mov al, bl
   593 00000192 80E107                  and cl,111
   594 00000195 F6E1                    mul cl
   595 00000197 4801C2                  add rdx, rax
   596                                 
   597 0000019A 48C7C1[00000000]        mov rcx,.fmt
   598 000001A1 E8(F6FFFFFF)            call printf
   599                                 
   600                                 
   601                                 
   602 000001A6 4831C9                  xor rcx,rcx
   603 000001A9 8A0C25[00000000]        mov cl,byte [.mod]
   604                                 
   605 000001B0 80F903                  cmp cl,3
   606 000001B3 7433                    je .endProc
   607 000001B5 80F900                  cmp cl,0
   608 000001B8 7422                    je .noDisplacement
   609 000001BA 4831D2                  xor rdx,rdx
   610 000001BD 8A1425[00000000]        mov dl,[.dispLow]
   611 000001C4 80F901                  cmp cl,1
   612 000001C7 7405                    je .printDisp
   613 000001C9 8A3425[00000000]        mov dh,[.dispHigh]
   614                                  .printDisp
   615 000001D0 48C7C1[00000000]        mov rcx,.fmt2
   616 000001D7 E8(F6FFFFFF)            call printf
   617 000001DC EB0A                    jmp .endProc
   618                                  .noDisplacement
   619 000001DE 48C7C1[00000000]        mov rcx,.fmt3
   620 000001E5 E8(F6FFFFFF)            call printf
   621                                 
   622                                  .endProc
   623 000001EA 4158                    pop r8
   624                                 %line 368+0 mnemonics.asm
   625 000001EC 5A                      pop rdx
   626 000001ED 59                      pop rcx
   627 000001EE 5B                      pop rbx
   628 000001EF 58                      pop rax
   629                                 %line 369+1 mnemonics.asm
   630 000001F0 4883C420                add rsp, 20
   631                                 %line 369+0 mnemonics.asm
   632 000001F4 5D                      pop rbp
   633                                 %line 370+1 mnemonics.asm
   634 000001F5 C3                      ret
   635                                 
   636                                 
   637                                 
   638                                 
   639                                 procPrintReg:
   640 000001F6 55                      push rbp
   641                                 %line 376+0 mnemonics.asm
   642 000001F7 4889E5                  mov rbp, rsp
   643 000001FA 4883EC20                sub rsp, 20
   644                                 %line 377+1 mnemonics.asm
   645 000001FE 50                      push rax
   646                                 %line 377+0 mnemonics.asm
   647 000001FF 53                      push rbx
   648 00000200 51                      push rcx
   649 00000201 52                      push rdx
   650 00000202 4150                    push r8
   651                                 %line 378+1 mnemonics.asm
   652                                 
   653                                 
   654 00000204 80C9C0                  or cl,11000000
   655 00000207 E813FFFFFF              call procPrintModRM
   656 0000020C 4158                    pop r8
   657                                 %line 382+0 mnemonics.asm
   658 0000020E 5A                      pop rdx
   659 0000020F 59                      pop rcx
   660 00000210 5B                      pop rbx
   661 00000211 58                      pop rax
   662                                 %line 383+1 mnemonics.asm
   663 00000212 4883C420                add rsp, 20
   664                                 %line 383+0 mnemonics.asm
   665 00000216 5D                      pop rbp
   666                                 %line 384+1 mnemonics.asm
   667 00000217 C3                      ret
   668                                 
   669                                 
   670                                 
   671                                 
   672                                 
   673                                 
   674                                 procPrintModRmWithReg
   675 00000218 55                      push rbp
   676                                 %line 392+0 mnemonics.asm
   677 00000219 4889E5                  mov rbp, rsp
   678 0000021C 4883EC20                sub rsp, 20
   679                                 %line 393+1 mnemonics.asm
   680 00000220 50                      push rax
   681                                 %line 393+0 mnemonics.asm
   682 00000221 53                      push rbx
   683 00000222 51                      push rcx
   684 00000223 52                      push rdx
   685 00000224 4150                    push r8
   686                                 %line 394+1 mnemonics.asm
   687 00000226 EBFE                    jmp .begin
   688                                 [section .data]
   689 00000750 00                      .byte1 db 0
   690 00000751 00                      .byte2 db 0
   691 00000752 257300                  .fmt db '%s',0
   692 00000755 00                      .dispLow db 0
   693 00000756 00                      .dispHigh db 0
   694                                 
   695                                 [section .text]
   696                                  .begin
   697 00000228 880C25[00000000]        mov [.byte1],cl
   698 0000022F 882C25[00000000]        mov [.byte2],ch
   699 00000236 881425[00000000]        mov [.dispLow], dl
   700 0000023D 883425[00000000]        mov [.dispHigh], dh
   701                                 
   702 00000244 F6C502                  test ch,2
   703 00000247 7422                    jz .toReg
   704                                 
   705 00000249 C0E903                  shr cl,3
   706 0000024C E8A0FFFFFF              call procPrintReg
   707                                 
   708 00000251 E8C10A0000              call procPrintComma
   709                                 
   710 00000256 668B0C25[00000000]      mov cx,[.byte1]
   711 0000025E 668B1425[00000000]      mov dx,[.dispLow]
   712                                 
   713                                 
   714                                 
   715                                 
   716                                 
   717 00000266 E8B4FEFFFF              call procPrintModRM
   718                                 
   719 0000026B EB30                    jmp .toliau
   720                                 .toReg
   721 0000026D 668B0C25[00000000]      mov cx,[.byte1]
   722 00000275 668B1425[00000000]      mov dx,[.dispLow]
   723 0000027D E89DFEFFFF              call procPrintModRM
   724                                 
   725 00000282 E8900A0000              call procPrintComma
   726                                 
   727 00000287 8A0C25[00000000]        mov cl,[.byte1]
   728 0000028E 8A2C25[00000000]        mov ch,[.byte2]
   729 00000295 C0E903                  shr cl,3
   730 00000298 E854FFFFFF              call procPrintReg
   731                                 
   732 0000029D EBFE                    jmp .toliau
   733                                 
   734                                 .toliau
   735 0000029F 4158                    pop r8
   736                                 %line 442+0 mnemonics.asm
   737 000002A1 5A                      pop rdx
   738 000002A2 59                      pop rcx
   739 000002A3 5B                      pop rbx
   740 000002A4 58                      pop rax
   741                                 %line 443+1 mnemonics.asm
   742 000002A5 4883C420                add rsp, 20
   743                                 %line 443+0 mnemonics.asm
   744 000002A9 5D                      pop rbp
   745                                 %line 444+1 mnemonics.asm
   746 000002AA C3                      ret
   747                                 
   748                                 
   749                                 
   750                                 
   751                                 procPrintop1byte:
   752 000002AB 55                      push rbp
   753                                 %line 450+0 mnemonics.asm
   754 000002AC 4889E5                  mov rbp, rsp
   755 000002AF 4883EC20                sub rsp, 20
   756                                 %line 451+1 mnemonics.asm
   757 000002B3 53                      push rbx
   758                                 %line 451+0 mnemonics.asm
   759 000002B4 51                      push rcx
   760 000002B5 52                      push rdx
   761 000002B6 4150                    push r8
   762                                 %line 452+1 mnemonics.asm
   763 000002B8 4831C0                  xor rax, rax
   764 000002BB 48C7C3[00000000]        mov rbx,op1byte
   765 000002C2 48C7C600000000          mov rsi,0
   766                                  .kartojam
   767                                 
   768                                 
   769 000002C9 803C3300                cmp byte [rbx+rsi], 0
   770 000002CD 741E                    je .neradom_baigiam
   771                                 
   772 000002CF 3A0C33                  cmp cl, [rbx+rsi]
   773 000002D2 7404                    je .radom
   774 000002D4 4883C609                add rsi, 9
   775 000002D8 EBED                    jmp .kartojam
   776                                  .radom
   777 000002DA 48FFC6                  inc rsi
   778 000002DD 488D0C33                lea rcx,[rbx+rsi]
   779 000002E1 E8(F6FFFFFF)            call puts
   780 000002E6 48C7C001000000          mov rax, 1
   781 000002ED EB03                    jmp .baigiam
   782                                  .neradom_baigiam
   783 000002EF 4831C0                  xor rax, rax
   784 000002F2 EBFE                    jmp .baigiam
   785                                  .baigiam
   786 000002F4 4158                    pop r8
   787                                 %line 475+0 mnemonics.asm
   788 000002F6 5A                      pop rdx
   789 000002F7 59                      pop rcx
   790 000002F8 5B                      pop rbx
   791                                 %line 476+1 mnemonics.asm
   792 000002F9 4883C420                add rsp, 20
   793                                 %line 476+0 mnemonics.asm
   794 000002FD 5D                      pop rbp
   795                                 %line 477+1 mnemonics.asm
   796 000002FE C3                      ret
   797                                 
   798                                 
   799                                 
   800                                 
   801                                 procPrintop1byteReg:
   802 000002FF 55                      push rbp
   803                                 %line 483+0 mnemonics.asm
   804 00000300 4889E5                  mov rbp, rsp
   805 00000303 4883EC20                sub rsp, 20
   806                                 %line 484+1 mnemonics.asm
   807 00000307 53                      push rbx
   808                                 %line 484+0 mnemonics.asm
   809 00000308 51                      push rcx
   810 00000309 52                      push rdx
   811 0000030A 4150                    push r8
   812                                 %line 485+1 mnemonics.asm
   813 0000030C EBFE                    jmp .begin
   814                                 [section .data]
   815 00000757 00                      .co db 0
   816 00000758 257300                  .fmt db "%s",0
   817                                 [section .text]
   818                                  .begin
   819 0000030E 48C7C3[00000000]        mov rbx,op1byteReg
   820 00000315 48C7C600000000          mov rsi,0
   821                                 
   822 0000031C 880C25[00000000]        mov [.co],cl
   823 00000323 8A2C25[00000000]        mov ch, [.co]
   824 0000032A 80E5F8                  and ch, 0F8
   825                                  .kartojam
   826 0000032D 803C3300                cmp byte [rbx+rsi], 0
   827 00000331 743C                    je .neradom_baigiam
   828 00000333 3A2C33                  cmp ch,byte [rbx+rsi]
   829 00000336 7404                    je .radom
   830 00000338 4883C60A                add rsi, 10
   831 0000033C EBED                    jmp .kartojam
   832                                  .radom
   833                                 
   834 0000033E 48FFC6                  inc rsi
   835 00000341 488D1433                lea rdx,[rbx+rsi]
   836 00000345 48C7C1[00000000]        mov rcx,.fmt
   837 0000034C E8(F6FFFFFF)            call printf
   838                                 
   839                                 
   840 00000351 8A0425[00000000]        mov al,[.co]
   841 00000358 2407                    and al,07
   842 0000035A B501                    mov ch,1
   843 0000035C 88C1                    mov cl,al
   844 0000035E E88EFEFFFF              call procPrintReg
   845                                 
   846 00000363 E887090000              call procNewLine
   847                                 
   848 00000368 48C7C001000000          mov rax, 1
   849 0000036F EB07                    jmp .baigiam
   850                                  .neradom_baigiam
   851 00000371 48C7C000000000          mov rax, 0
   852 00000378 EBFE                    jmp .baigiam
   853                                  .baigiam
   854 0000037A 4158                    pop r8
   855                                 %line 526+0 mnemonics.asm
   856 0000037C 5A                      pop rdx
   857 0000037D 59                      pop rcx
   858 0000037E 5B                      pop rbx
   859                                 %line 527+1 mnemonics.asm
   860 0000037F 4883C420                add rsp, 20
   861                                 %line 527+0 mnemonics.asm
   862 00000383 5D                      pop rbp
   863                                 %line 528+1 mnemonics.asm
   864 00000384 C3                      ret
   865                                 
   866                                 
   867                                 
   868                                 
   869                                 
   870                                 procPrintOp1byte1data:
   871 00000385 55                      push rbp
   872                                 %line 535+0 mnemonics.asm
   873 00000386 4889E5                  mov rbp, rsp
   874 00000389 4883EC20                sub rsp, 20
   875                                 %line 536+1 mnemonics.asm
   876 0000038D 53                      push rbx
   877                                 %line 536+0 mnemonics.asm
   878 0000038E 51                      push rcx
   879 0000038F 52                      push rdx
   880 00000390 4150                    push r8
   881                                 %line 537+1 mnemonics.asm
   882 00000392 EBFE                    jmp .begin
   883                                 [section .data]
   884 0000075B 00                      .byte1 db 0
   885 0000075C 00                      .byte2 db 0
   886 0000075D 257300                  .fmt db "%s",0
   887 00000760 307825780A00            .fmt2 db "0x%x",10, 0
   888                                 [section .text]
   889                                  .begin
   890                                 
   891                                 
   892 00000394 880C25[00000000]        mov [.byte1],cl
   893 0000039B 882C25[00000000]        mov [.byte2],ch
   894                                 
   895 000003A2 48C7C3[00000000]        mov rbx,op1byte1data
   896 000003A9 48C7C600000000          mov rsi,0
   897                                  .kartojam
   898 000003B0 803C3300                cmp byte [rbx+rsi], 0
   899 000003B4 743B                    je .neradom_baigiam
   900                                 
   901 000003B6 3A0C33                  cmp cl, [rbx+rsi]
   902 000003B9 7404                    je .radom
   903 000003BB 4883C609                add rsi, 9
   904 000003BF EBED                    jmp .kartojam
   905                                  .radom
   906 000003C1 48FFC6                  inc rsi
   907                                 
   908 000003C4 488D1433                lea rdx,[rbx+rsi]
   909 000003C8 48C7C1[00000000]        mov rcx,.fmt
   910 000003CF E8(F6FFFFFF)            call printf
   911                                 
   912 000003D4 4831D2                  xor rdx,rdx
   913 000003D7 8A1425[00000000]        mov dl,byte [.byte2]
   914 000003DE 48C7C1[00000000]        mov rcx,.fmt2
   915 000003E5 E8(F6FFFFFF)            call printf
   916                                 
   917 000003EA 48C7C002000000          mov rax, 2
   918 000003F1 EB03                    jmp .baigiam
   919                                  .neradom_baigiam
   920 000003F3 4831C0                  xor rax, rax
   921 000003F6 EBFE                    jmp .baigiam
   922                                  .baigiam
   923 000003F8 4158                    pop r8
   924                                 %line 578+0 mnemonics.asm
   925 000003FA 5A                      pop rdx
   926 000003FB 59                      pop rcx
   927 000003FC 5B                      pop rbx
   928                                 %line 579+1 mnemonics.asm
   929 000003FD 4883C420                add rsp, 20
   930                                 %line 579+0 mnemonics.asm
   931 00000401 5D                      pop rbp
   932                                 %line 580+1 mnemonics.asm
   933 00000402 C3                      ret
   934                                 
   935                                 
   936                                 
   937                                 
   938                                 
   939                                 
   940                                 
   941                                 procPrintop2byteModRegRm:
   942 00000403 55                      push rbp
   943                                 %line 589+0 mnemonics.asm
   944 00000404 4889E5                  mov rbp, rsp
   945 00000407 4883EC20                sub rsp, 20
   946                                 %line 590+1 mnemonics.asm
   947 0000040B 53                      push rbx
   948                                 %line 590+0 mnemonics.asm
   949 0000040C 51                      push rcx
   950 0000040D 52                      push rdx
   951 0000040E 4150                    push r8
   952                                 %line 591+1 mnemonics.asm
   953 00000410 EBFE                    jmp .begin
   954                                 [section .data]
   955 00000766 00                      .byte1 db 0
   956 00000767 00                      .byte2 db 0
   957 00000768 257300                  .fmt db "%s",0
   958 0000076B 00                      .dispLow db 0
   959 0000076C 00                      .dispHigh db 0
   960                                 [section .text]
   961                                  .begin
   962 00000412 66890C25[00000000]      mov [.byte1],cx
   963 0000041A 66891425[00000000]      mov [.dispLow], dx
   964 00000422 48C7C3[00000000]        mov rbx,op2byteModRegRm
   965 00000429 48C7C600000000          mov rsi,0
   966                                 
   967                                  .kartojam
   968 00000430 803C33FF                cmp byte [rbx+rsi], 0FF
   969 00000434 746B                    je .neradom_baigiam
   970                                 
   971 00000436 8A0C25[00000000]        mov cl, [.byte1]
   972 0000043D 80E1FE                  and cl, 0FE
   973 00000440 3A0C33                  cmp cl,byte [rbx+rsi]
   974 00000443 7404                    je .radom
   975 00000445 4883C609                add rsi, 9
   976 00000449 EBE3                    jmp .kartojam
   977                                  .radom
   978                                 
   979 0000044B 48FFC6                  inc rsi
   980 0000044E 488D1433                lea rdx,[rbx+rsi]
   981 00000452 48C7C1[00000000]        mov rcx,.fmt
   982 00000459 E8(F6FFFFFF)            call printf
   983                                 
   984                                 
   985                                 
   986                                 
   987                                 
   988 0000045E 8A2C25[00000000]        mov ch, [.byte1]
   989 00000465 8A0C25[00000000]        mov cl, [.byte2]
   990 0000046C 8A1425[00000000]        mov dl, [.dispLow]
   991 00000473 8A3425[00000000]        mov dh, [.dispHigh]
   992 0000047A E894FDFFFF              call procPrintModRmWithReg
   993 0000047F E86B080000              call procNewLine
   994                                 
   995 00000484 48C7C002000000          mov rax, 2
   996                                 
   997 0000048B 30C9                    xor cl,cl
   998 0000048D 8A0C25[00000000]        mov cl, [.byte2]
   999 00000494 C0E906                  shr cl, 6
  1000 00000497 80E103                  and cl,3
  1001 0000049A 80F903                  cmp cl,3
  1002 0000049D 7400                    je .nepridedam
  1003 0000049F 00C8                    add al,cl
  1004                                  .nepridedam
  1005 000004A1 EB07                    jmp .baigiam
  1006                                  .neradom_baigiam
  1007 000004A3 48C7C000000000          mov rax, 0
  1008 000004AA EBFE                    jmp .baigiam
  1009                                  .baigiam
  1010                                 
  1011 000004AC 4158                    pop r8
  1012                                 %line 649+0 mnemonics.asm
  1013 000004AE 5A                      pop rdx
  1014 000004AF 59                      pop rcx
  1015 000004B0 5B                      pop rbx
  1016                                 %line 650+1 mnemonics.asm
  1017 000004B1 4883C420                add rsp, 20
  1018                                 %line 650+0 mnemonics.asm
  1019 000004B5 5D                      pop rbp
  1020                                 %line 651+1 mnemonics.asm
  1021 000004B6 C3                      ret
  1022                                 
  1023                                 
  1024                                 
  1025                                 
  1026                                 
  1027                                 
  1028                                 
  1029                                 procPrintop2byteModRm:
  1030 000004B7 55                      push rbp
  1031                                 %line 660+0 mnemonics.asm
  1032 000004B8 4889E5                  mov rbp, rsp
  1033 000004BB 4883EC20                sub rsp, 20
  1034                                 %line 661+1 mnemonics.asm
  1035 000004BF 53                      push rbx
  1036                                 %line 661+0 mnemonics.asm
  1037 000004C0 51                      push rcx
  1038 000004C1 52                      push rdx
  1039 000004C2 4150                    push r8
  1040                                 %line 662+1 mnemonics.asm
  1041 000004C4 EBFE                    jmp .begin
  1042                                 [section .data]
  1043 0000076D 00                      .byte1 db 0
  1044 0000076E 00                      .byte2 db 0
  1045 0000076F 257300                  .fmt db "%s",0
  1046 00000772 257800                  .fmtHex db "%x",0
  1047 00000775 00                      .dispLow db 0
  1048 00000776 00                      .dispHigh db 0
  1049                                 [section .text]
  1050                                  .begin
  1051 000004C6 66890C25[00000000]      mov [.byte1],cx
  1052 000004CE 66891425[00000000]      mov [.dispLow], dx
  1053                                 
  1054 000004D6 48C7C3[00000000]        mov rbx,op2byteModRm
  1055 000004DD 48C7C600000000          mov rsi,0
  1056                                 
  1057                                  .kartojam
  1058 000004E4 66833C3300              cmp word [rbx+rsi], 0
  1059 000004E9 0F84C2000000            je .neradom_baigiam
  1060                                 
  1061 000004EF 8A0C25[00000000]        mov cl, [.byte1]
  1062 000004F6 8A2C25[00000000]        mov ch, [.byte2]
  1063 000004FD C0ED03                  shr ch,3
  1064 00000500 80E507                  and ch,7
  1065 00000503 663B0C33                cmp cx,word [rbx+rsi]
  1066 00000507 740D                    je .radom
  1067                                 
  1068                                 
  1069 00000509 80E1FE                  and cl, 0Fe
  1070 0000050C 663B0C33                cmp cx,word [rbx+rsi]
  1071 00000510 7404                    je .radom
  1072                                 
  1073 00000512 4883C60A                add rsi, 10
  1074 00000516 EBCA                    jmp .kartojam
  1075                                  .radom
  1076                                 
  1077 00000518 48FFC6                  inc rsi
  1078 0000051B 48FFC6                  inc rsi
  1079                                 
  1080 0000051E 488D1433                lea rdx,[rbx+rsi]
  1081 00000522 48C7C1[00000000]        mov rcx,.fmt
  1082 00000529 E8(F6FFFFFF)            call printf
  1083                                 
  1084 0000052E 8A2C25[00000000]        mov ch, [.byte1]
  1085 00000535 8A0C25[00000000]        mov cl, [.byte2]
  1086 0000053C 8A1425[00000000]        mov dl, [.dispLow]
  1087 00000543 8A3425[00000000]        mov dh, [.dispHigh]
  1088 0000054A E8D0FBFFFF              call procPrintModRM
  1089                                 
  1090                                 
  1091 0000054F 4831C9                  xor rcx,rcx
  1092 00000552 8A2C25[00000000]        mov ch, byte [.byte1]
  1093 00000559 80E5FC                  and ch,0FC
  1094 0000055C 80FDD0                  cmp ch,0D0
  1095 0000055F 7530                    jne .newLine
  1096 00000561 E8B1070000              call procPrintComma
  1097                                 
  1098 00000566 8A0C25[00000000]        mov cl, [.byte1]
  1099 0000056D F6C102                  test cl, 2
  1100 00000570 740A                    jz .spausDinkVieneta
  1101 00000572 80E500                  and ch,0
  1102 00000575 B101                    mov cl,1
  1103 00000577 E875FCFFFF              call procPrintReg
  1104 0000057C EB13                    jmp .newLine
  1105                                  .spausDinkVieneta
  1106 0000057E 48C7C201000000          mov rdx,1
  1107 00000585 48C7C1[00000000]        mov rcx,.fmtHex
  1108 0000058C E8(F6FFFFFF)            call printf
  1109 00000591 EBFE                    jmp .newLine
  1110                                  .newLine
  1111 00000593 E857070000              call procNewLine
  1112                                 
  1113 00000598 48C7C002000000          mov rax, 2
  1114                                 
  1115                                 
  1116 0000059F 30C9                    xor cl,cl
  1117 000005A1 8A0C25[00000000]        mov cl, [.byte2]
  1118 000005A8 C0E906                  shr cl, 6
  1119 000005AB 80E103                  and cl,3
  1120 000005AE 80F903                  cmp cl,3
  1121 000005B1 7400                    je .nepridedam
  1122 000005B3 00C8                    add al,cl
  1123                                  .nepridedam
  1124 000005B5 EB07                    jmp .baigiam
  1125                                  .neradom_baigiam
  1126 000005B7 48C7C000000000          mov rax, 0
  1127 000005BE EBFE                    jmp .baigiam
  1128                                  .baigiam
  1129                                 
  1130 000005C0 4158                    pop r8
  1131                                 %line 751+0 mnemonics.asm
  1132 000005C2 5A                      pop rdx
  1133 000005C3 59                      pop rcx
  1134 000005C4 5B                      pop rbx
  1135                                 %line 752+1 mnemonics.asm
  1136 000005C5 4883C420                add rsp, 20
  1137                                 %line 752+0 mnemonics.asm
  1138 000005C9 5D                      pop rbp
  1139                                 %line 753+1 mnemonics.asm
  1140 000005CA C3                      ret
  1141                                 
  1142                                 
  1143                                 
  1144                                 
  1145                                 
  1146                                 
  1147                                 
  1148                                 
  1149                                 
  1150                                 
  1151                                 procPrintop2byteModRmImmediate
  1152 000005CB 55                      push rbp
  1153                                 %line 765+0 mnemonics.asm
  1154 000005CC 4889E5                  mov rbp, rsp
  1155 000005CF 4883EC20                sub rsp, 20
  1156                                 %line 766+1 mnemonics.asm
  1157 000005D3 53                      push rbx
  1158                                 %line 766+0 mnemonics.asm
  1159 000005D4 51                      push rcx
  1160 000005D5 52                      push rdx
  1161 000005D6 4150                    push r8
  1162                                 %line 767+1 mnemonics.asm
  1163 000005D8 EBFE                    jmp .begin
  1164                                 [section .data]
  1165 00000777 00                      .byte1 db 0
  1166 00000778 00                      .byte2 db 0
  1167 00000779 257300                  .fmt db "%s",0
  1168 0000077C 257800                  .fmtHex db "%x",0
  1169 0000077F 2C257800                .fmtData db ",%x",0
  1170 00000783 00                      .data1 db 0
  1171 00000784 00                      .data2 db 0
  1172 00000785 00                      .data3 db 0
  1173 00000786 00                      .data4 db 0
  1174 00000787 00                      .mod db 0
  1175 00000788 00                      .baituKiekis db 0
  1176                                 [section .text]
  1177                                  .begin
  1178 000005DA 66890C25[00000000]      mov [.byte1],cx
  1179 000005E2 C0ED06                  shr ch,6
  1180 000005E5 80E507                  and ch,7
  1181 000005E8 882C25[00000000]        mov [.mod],ch
  1182 000005EF 48C7C002000000          mov rax, 2
  1183 000005F6 880425[00000000]        mov [.baituKiekis], al
  1184 000005FD 66891425[00000000]      mov word [.data1], dx
  1185 00000605 66891C25[00000000]      mov word [.data3], bx
  1186                                 
  1187 0000060D 48C7C3[00000000]        mov rbx,op2byteModRmImmediate
  1188 00000614 48C7C600000000          mov rsi,0
  1189                                 
  1190                                  .kartojam
  1191 0000061B 668B0C25[00000000]      mov cx, word [.byte1]
  1192                                 
  1193 00000623 80E1FE                  and cl,0fe
  1194                                 
  1195 00000626 C0ED03                  shr ch,3
  1196 00000629 80E507                  and ch,7
  1197                                 
  1198 0000062C 66833C3300              cmp word [rbx+rsi], 0
  1199 00000631 0F84A2000000            je .neradom_baigiam
  1200                                 
  1201 00000637 663B0C33                cmp cx,word [rbx+rsi]
  1202 0000063B 7404                    je .radom
  1203 0000063D 4883C60A                add rsi, 10
  1204 00000641 EBD6                    jmp .kartojam
  1205                                  .radom
  1206                                 
  1207 00000643 48FFC6                  inc rsi
  1208 00000646 48FFC6                  inc rsi
  1209                                 
  1210 00000649 488D1433                lea rdx,[rbx+rsi]
  1211 0000064D 48C7C1[00000000]        mov rcx,.fmt
  1212 00000654 E8(F6FFFFFF)            call printf
  1213                                 
  1214 00000659 8A2C25[00000000]        mov ch, [.byte1]
  1215 00000660 8A0C25[00000000]        mov cl, [.byte2]
  1216 00000667 668B1425[00000000]      mov dx, [.data1]
  1217 0000066F E8ABFAFFFF              call procPrintModRM
  1218                                 
  1219                                 
  1220                                 
  1221                                 
  1222 00000674 4831D2                  xor rdx,rdx
  1223 00000677 4831C9                  xor rcx,rcx
  1224 0000067A 4831C0                  xor rax,rax
  1225 0000067D 4831DB                  xor rbx,rbx
  1226 00000680 48C7C3[00000000]        mov rbx,.data1
  1227 00000687 8A0425[00000000]        mov al,[.baituKiekis]
  1228 0000068E 30C9                    xor cl,cl
  1229 00000690 8A0C25[00000000]        mov cl, [.mod]
  1230 00000697 80F900                  cmp cl,0
  1231 0000069A 740F                    je .displacementNebuvo
  1232 0000069C 80F903                  cmp cl,3
  1233 0000069F 740A                    je .displacementNebuvo
  1234 000006A1 4801CB                  add rbx, rcx
  1235                                 
  1236 000006A4 00C8                    add al,cl
  1237 000006A6 880425[00000000]        mov [.baituKiekis],al
  1238                                  .displacementNebuvo
  1239 000006AD FE0425[00000000]        inc byte [.baituKiekis]
  1240                                 
  1241 000006B4 8A13                    mov dl,[rbx]
  1242 000006B6 8A0C25[00000000]        mov cl,[.byte1]
  1243 000006BD F6C101                  test cl,1
  1244 000006C0 7408                    jz .data1baitas
  1245 000006C2 8A7301                  mov dh,[rbx+1]
  1246 000006C5 FE0425[00000000]        inc byte [.baituKiekis]
  1247                                  .data1baitas
  1248 000006CC 48C7C1[00000000]        mov rcx,.fmtData
  1249 000006D3 E8(F6FFFFFF)            call printf
  1250                                 
  1251 000006D8 E812060000              call procNewLine
  1252 000006DD EB0E                    jmp .baigiam
  1253                                  .neradom_baigiam
  1254 000006DF 48C7C000000000          mov rax, 0
  1255 000006E6 880425[00000000]        mov [.baituKiekis],al
  1256 000006ED EBFE                    jmp .baigiam
  1257                                  .baigiam
  1258                                 
  1259                                 
  1260 000006EF 4158                    pop r8
  1261                                 %line 864+0 mnemonics.asm
  1262 000006F1 5A                      pop rdx
  1263 000006F2 59                      pop rcx
  1264 000006F3 5B                      pop rbx
  1265                                 %line 865+1 mnemonics.asm
  1266 000006F4 4883C420                add rsp, 20
  1267                                 %line 865+0 mnemonics.asm
  1268 000006F8 5D                      pop rbp
  1269                                 %line 866+1 mnemonics.asm
  1270 000006F9 C3                      ret
  1271                                 
  1272                                 
  1273                                 
  1274                                 
  1275                                 
  1276                                 
  1277                                 procPrintImmediateAccumulator:
  1278 000006FA 55                      push rbp
  1279                                 %line 874+0 mnemonics.asm
  1280 000006FB 4889E5                  mov rbp, rsp
  1281 000006FE 4883EC20                sub rsp, 20
  1282                                 %line 875+1 mnemonics.asm
  1283 00000702 53                      push rbx
  1284                                 %line 875+0 mnemonics.asm
  1285 00000703 51                      push rcx
  1286 00000704 52                      push rdx
  1287 00000705 4150                    push r8
  1288                                 %line 876+1 mnemonics.asm
  1289 00000707 EBFE                    jmp .begin
  1290                                 [section .data]
  1291 00000789 257300                  .fmt db "%s",0
  1292 0000078C 414C2C3078257800        .fmtByte db "AL,0x%x",0
  1293 00000794 41582C3078257800        .fmtWord db "AX,0x%x",0
  1294 0000079C 00                      .dataLow db 0
  1295 0000079D 00                      .dataHigh db 0
  1296 0000079E 00                      .byte db 0
  1297 0000079F 00                      .totalBytes db 0
  1298                                 [section .text]
  1299                                  .begin
  1300 00000709 882C25[00000000]        mov [.dataLow],ch
  1301 00000710 881425[00000000]        mov [.dataHigh],dl
  1302 00000717 880C25[00000000]        mov [.byte],cl
  1303                                 
  1304 0000071E 48C7C3[00000000]        mov rbx,immediateAccumulator
  1305 00000725 48C7C600000000          mov rsi,0
  1306                                  .kartojam
  1307 0000072C 8A0C25[00000000]        mov cl, [.byte]
  1308 00000733 80E1FE                  and cl,0FE
  1309                                 
  1310 00000736 803C3300                cmp byte [rbx+rsi], 0
  1311 0000073A 7467                    je .neradom_baigiam
  1312                                 
  1313 0000073C 3A0C33                  cmp cl, [rbx+rsi]
  1314 0000073F 7404                    je .radom
  1315 00000741 4883C607                add rsi, 7
  1316 00000745 EBE3                    jmp .kartojam
  1317                                  .radom
  1318 00000747 48FFC6                  inc rsi
  1319                                 
  1320 0000074A 488D1433                lea rdx,[rbx+rsi]
  1321 0000074E 48C7C1[00000000]        mov rcx,.fmt
  1322 00000755 E8(F6FFFFFF)            call printf
  1323                                 
  1324 0000075A 4831D2                  xor rdx,rdx
  1325 0000075D 8A1425[00000000]        mov dl, [.dataLow]
  1326 00000764 B002                    mov al, 2
  1327 00000766 880425[00000000]        mov [.totalBytes],al
  1328 0000076D 8A0C25[00000000]        mov cl,[.byte]
  1329 00000774 F6C101                  test cl,1
  1330 00000777 7507                    jnz .itsWord
  1331 00000779 48C7C1[00000000]        mov rcx, .fmtByte
  1332 00000780 EB15                    jmp .toliau
  1333                                  .itsWord
  1334 00000782 48C7C1[00000000]        mov rcx, .fmtWord
  1335 00000789 8A3425[00000000]        mov dh, [.dataHigh]
  1336 00000790 B003                    mov al, 3
  1337 00000792 880425[00000000]        mov [.totalBytes],al
  1338                                  .toliau
  1339 00000799 E8(F6FFFFFF)            call printf
  1340 0000079E E84C050000              call procNewLine
  1341                                 
  1342 000007A3 EB09                    jmp .baigiam
  1343                                  .neradom_baigiam
  1344 000007A5 B000                    mov al, 0
  1345 000007A7 880425[00000000]        mov [.totalBytes],al
  1346 000007AE EBFE                    jmp .baigiam
  1347                                  .baigiam
  1348 000007B0 4831C0                  xor rax,rax
  1349 000007B3 8A0425[00000000]        mov al, [.totalBytes]
  1350                                 
  1351 000007BA 4158                    pop r8
  1352                                 %line 938+0 mnemonics.asm
  1353 000007BC 5A                      pop rdx
  1354 000007BD 59                      pop rcx
  1355 000007BE 5B                      pop rbx
  1356                                 %line 939+1 mnemonics.asm
  1357 000007BF 4883C420                add rsp, 20
  1358                                 %line 939+0 mnemonics.asm
  1359 000007C3 5D                      pop rbp
  1360                                 %line 940+1 mnemonics.asm
  1361 000007C4 C3                      ret
  1362                                 
  1363                                 
  1364                                 
  1365                                 
  1366                                 
  1367                                 
  1368                                 procPrintOp1byte2data
  1369 000007C5 55                      push rbp
  1370                                 %line 948+0 mnemonics.asm
  1371 000007C6 4889E5                  mov rbp, rsp
  1372 000007C9 4883EC20                sub rsp, 20
  1373                                 %line 949+1 mnemonics.asm
  1374 000007CD 53                      push rbx
  1375                                 %line 949+0 mnemonics.asm
  1376 000007CE 51                      push rcx
  1377 000007CF 52                      push rdx
  1378 000007D0 4150                    push r8
  1379                                 %line 950+1 mnemonics.asm
  1380 000007D2 EBFE                    jmp .begin
  1381                                 [section .data]
  1382 000007A0 00                      .byte1 db 0
  1383 000007A1 00                      .byte2 db 0
  1384 000007A2 00                      .byte3 db 0
  1385 000007A3 257300                  .fmt db "%s",0
  1386 000007A6 307825780A00            .fmt2 db "0x%x",10, 0
  1387                                 [section .text]
  1388                                  .begin
  1389 000007D4 880C25[00000000]        mov [.byte1],cl
  1390 000007DB 882C25[00000000]        mov [.byte2],ch
  1391 000007E2 881425[00000000]        mov [.byte3],dl
  1392                                 
  1393 000007E9 48C7C3[00000000]        mov rbx,op1byte2data
  1394 000007F0 48C7C600000000          mov rsi,0
  1395                                  .kartojam
  1396 000007F7 8A0C25[00000000]        mov cl,[.byte1]
  1397 000007FE 8A2C33                  mov ch,[rbx+rsi]
  1398                                 
  1399                                 
  1400 00000801 803C3300                cmp byte [rbx+rsi], 0
  1401 00000805 7449                    je .neradom_baigiam
  1402                                 
  1403 00000807 8A0C25[00000000]        mov cl,[.byte1]
  1404 0000080E 3A0C33                  cmp cl, [rbx+rsi]
  1405 00000811 7404                    je .radom
  1406 00000813 4883C609                add rsi, 9
  1407 00000817 EBDC                    jmp .kartojam
  1408                                  .radom
  1409 00000819 48FFC6                  inc rsi
  1410                                 
  1411 0000081C 488D1433                lea rdx,[rbx+rsi]
  1412 00000820 48C7C1[00000000]        mov rcx,.fmt
  1413 00000827 E8(F6FFFFFF)            call printf
  1414                                 
  1415 0000082C 4831D2                  xor rdx,rdx
  1416 0000082F 8A1425[00000000]        mov dl,byte [.byte2]
  1417 00000836 8A3425[00000000]        mov dh,byte [.byte3]
  1418 0000083D 48C7C1[00000000]        mov rcx,.fmt2
  1419 00000844 E8(F6FFFFFF)            call printf
  1420                                 
  1421 00000849 48C7C003000000          mov rax, 3
  1422 00000850 EB07                    jmp .baigiam
  1423                                  .neradom_baigiam
  1424 00000852 48C7C000000000          mov rax, 0
  1425 00000859 EBFE                    jmp .baigiam
  1426                                  .baigiam
  1427                                 
  1428 0000085B 4158                    pop r8
  1429                                 %line 998+0 mnemonics.asm
  1430 0000085D 5A                      pop rdx
  1431 0000085E 59                      pop rcx
  1432 0000085F 5B                      pop rbx
  1433                                 %line 999+1 mnemonics.asm
  1434 00000860 4883C420                add rsp, 20
  1435                                 %line 999+0 mnemonics.asm
  1436 00000864 5D                      pop rbp
  1437                                 %line 1000+1 mnemonics.asm
  1438 00000865 C3                      ret
  1439                                 
  1440                                 
  1441                                 
  1442                                 
  1443                                 
  1444                                 
  1445                                 
  1446                                 
  1447                                 procPrintOp1byte4data
  1448 00000866 55                      push rbp
  1449                                 %line 1010+0 mnemonics.asm
  1450 00000867 4889E5                  mov rbp, rsp
  1451 0000086A 4883EC20                sub rsp, 20
  1452                                 %line 1011+1 mnemonics.asm
  1453 0000086E 53                      push rbx
  1454                                 %line 1011+0 mnemonics.asm
  1455 0000086F 51                      push rcx
  1456 00000870 52                      push rdx
  1457 00000871 4150                    push r8
  1458                                 %line 1012+1 mnemonics.asm
  1459 00000873 EBFE                    jmp .begin
  1460                                 [section .data]
  1461 000007AC 00                      .byte1 db 0
  1462 000007AD 00                      .byte2 db 0
  1463 000007AE 00                      .byte3 db 0
  1464 000007AF 00                      .byte4 db 0
  1465 000007B0 00                      .byte5 db 0
  1466 000007B1 257300                  .fmt db "%s",0
  1467 000007B4 307825783A30782578-     .fmt2 db "0x%x:0x%x",10, 0
  1468 000007B4 0A00               
  1469                                 [section .text]
  1470                                  .begin
  1471 00000875 880C25[00000000]        mov [.byte1],cl
  1472 0000087C 881425[00000000]        mov [.byte2],dl
  1473 00000883 883425[00000000]        mov [.byte3],dh
  1474 0000088A 881C25[00000000]        mov [.byte4],bl
  1475 00000891 883C25[00000000]        mov [.byte5],bh
  1476                                 
  1477 00000898 48C7C3[00000000]        mov rbx,op1byte4data
  1478 0000089F 48C7C600000000          mov rsi,0
  1479                                  .kartojam
  1480 000008A6 66833C3300              cmp word [rbx+rsi], 0
  1481 000008AB 7448                    je .neradom_baigiam
  1482                                 
  1483 000008AD 3A0C33                  cmp cl, [rbx+rsi]
  1484 000008B0 7404                    je .radom
  1485 000008B2 4883C609                add rsi, 9
  1486 000008B6 EBEC                    jmp .kartojam
  1487                                  .radom
  1488 000008B8 48FFC6                  inc rsi
  1489                                 
  1490 000008BB 488D1433                lea rdx,[rbx+rsi]
  1491 000008BF 48C7C1[00000000]        mov rcx,.fmt
  1492 000008C6 E8(F6FFFFFF)            call printf
  1493                                 
  1494 000008CB 4831D2                  xor rdx,rdx
  1495 000008CE 4D31C0                  xor r8,r8
  1496 000008D1 48C7C1[00000000]        mov rcx,.fmt2
  1497 000008D8 668B1425[00000000]      mov dx,word [.byte4]
  1498 000008E0 66448B0425[00000000]      mov r8w,word [.byte2]
  1499 000008E9 E8(F6FFFFFF)            call printf
  1500                                 
  1501 000008EE 48C7C005000000          mov rax, 5
  1502 000008F5 EB07                    jmp .baigiam
  1503                                  .neradom_baigiam
  1504 000008F7 48C7C000000000          mov rax, 0
  1505 000008FE EBFE                    jmp .baigiam
  1506                                  .baigiam
  1507                                 
  1508 00000900 4158                    pop r8
  1509                                 %line 1060+0 mnemonics.asm
  1510 00000902 5A                      pop rdx
  1511 00000903 59                      pop rcx
  1512 00000904 5B                      pop rbx
  1513                                 %line 1061+1 mnemonics.asm
  1514 00000905 4883C420                add rsp, 20
  1515                                 %line 1061+0 mnemonics.asm
  1516 00000909 5D                      pop rbp
  1517                                 %line 1062+1 mnemonics.asm
  1518 0000090A C3                      ret
  1519                                 
  1520                                 
  1521                                 
  1522                                 
  1523                                 
  1524                                 
  1525                                 
  1526                                 
  1527                                 
  1528                                 procPrintImmediateToRegister:
  1529 0000090B 55                      push rbp
  1530                                 %line 1073+0 mnemonics.asm
  1531 0000090C 4889E5                  mov rbp, rsp
  1532 0000090F 4883EC20                sub rsp, 20
  1533                                 %line 1074+1 mnemonics.asm
  1534 00000913 53                      push rbx
  1535                                 %line 1074+0 mnemonics.asm
  1536 00000914 51                      push rcx
  1537 00000915 52                      push rdx
  1538 00000916 4150                    push r8
  1539                                 %line 1075+1 mnemonics.asm
  1540 00000918 EBFE                    jmp .begin
  1541                                 [section .data]
  1542 000007BF 00                      .co db 0
  1543 000007C0 257300                  .fmt db "%s",0
  1544 000007C3 257800                  .fmt2 db "%x",0
  1545 000007C6 00                      .data1 db 0
  1546 000007C7 00                      .data2 db 0
  1547 000007C8 00                      .baituKiekis db 0
  1548                                 [section .text]
  1549                                  .begin
  1550 0000091A 66891425[00000000]      mov [.data1],dx
  1551 00000922 C60425[00000000]02      mov byte [.baituKiekis],2
  1552 0000092A 48C7C3[00000000]        mov rbx,immediateToRegister
  1553 00000931 48C7C600000000          mov rsi,0
  1554                                 
  1555 00000938 880C25[00000000]        mov [.co],cl
  1556 0000093F 8A2C25[00000000]        mov ch, [.co]
  1557 00000946 80E5F0                  and ch, 0F0
  1558                                  .kartojam
  1559 00000949 803C3300                cmp byte [rbx+rsi], 0
  1560 0000094D 0F847A000000            je .neradom_baigiam
  1561                                 
  1562 00000953 3A2C33                  cmp ch,byte [rbx+rsi]
  1563 00000956 7404                    je .radom
  1564 00000958 4883C607                add rsi, 7
  1565 0000095C EBE9                    jmp .kartojam
  1566                                  .radom
  1567                                 
  1568 0000095E 48FFC6                  inc rsi
  1569 00000961 488D1433                lea rdx,[rbx+rsi]
  1570 00000965 48C7C1[00000000]        mov rcx,.fmt
  1571 0000096C E8(F6FFFFFF)            call printf
  1572                                 
  1573                                 
  1574                                 
  1575                                 
  1576 00000971 8A0425[00000000]        mov al,[.co]
  1577 00000978 C0E803                  shr al,3
  1578 0000097B 88C5                    mov ch,al
  1579 0000097D 8A0425[00000000]        mov al,[.co]
  1580 00000984 2407                    and al,7
  1581 00000986 88C1                    mov cl,al
  1582 00000988 E864F8FFFF              call procPrintReg
  1583 0000098D E885030000              call procPrintComma
  1584                                 
  1585 00000992 4831D2                  xor rdx,rdx
  1586 00000995 4831C0                  xor rax,rax
  1587 00000998 8A0425[00000000]        mov al,[.co]
  1588 0000099F A808                    test al,8
  1589 000009A1 740C                    jz .vienasBaitas
  1590 000009A3 8A3425[00000000]        mov dh, [.data2]
  1591 000009AA FE0425[00000000]        inc byte [.baituKiekis]
  1592                                  .vienasBaitas
  1593 000009B1 8A1425[00000000]        mov dl, [.data1]
  1594 000009B8 48C7C1[00000000]        mov rcx, .fmt2
  1595 000009BF E8(F6FFFFFF)            call printf
  1596                                 
  1597 000009C4 E826030000              call procNewLine
  1598                                 
  1599 000009C9 488B0425[00000000]      mov rax, [.baituKiekis]
  1600 000009D1 EB07                    jmp .baigiam
  1601                                  .neradom_baigiam
  1602                                 
  1603 000009D3 48C7C000000000          mov rax, 0
  1604 000009DA EBFE                    jmp .baigiam
  1605                                  .baigiam
  1606                                 
  1607 000009DC 4158                    pop r8
  1608                                 %line 1142+0 mnemonics.asm
  1609 000009DE 5A                      pop rdx
  1610 000009DF 59                      pop rcx
  1611 000009E0 5B                      pop rbx
  1612                                 %line 1143+1 mnemonics.asm
  1613 000009E1 4883C420                add rsp, 20
  1614                                 %line 1143+0 mnemonics.asm
  1615 000009E5 5D                      pop rbp
  1616                                 %line 1144+1 mnemonics.asm
  1617 000009E6 C3                      ret
  1618                                 
  1619                                 
  1620                                 
  1621                                 
  1622                                 
  1623                                 
  1624                                 
  1625                                 
  1626                                 
  1627                                 
  1628                                 procPrintMemAccum:
  1629 000009E7 55                      push rbp
  1630                                 %line 1156+0 mnemonics.asm
  1631 000009E8 4889E5                  mov rbp, rsp
  1632 000009EB 4883EC20                sub rsp, 20
  1633                                 %line 1157+1 mnemonics.asm
  1634 000009EF 53                      push rbx
  1635                                 %line 1157+0 mnemonics.asm
  1636 000009F0 51                      push rcx
  1637 000009F1 52                      push rdx
  1638 000009F2 4150                    push r8
  1639                                 %line 1158+1 mnemonics.asm
  1640 000009F4 EBFE                    jmp .begin
  1641                                 [section .data]
  1642 000007C9 00                      .co db 0
  1643 000007CA 257300                  .fmt db "%s",0
  1644 000007CD 5B307825785D2C2573-     .memToAcum db "[0x%x],%s",0
  1645 000007CD 00                 
  1646 000007D7 25732C5B307825785D-     .acumToMem db "%s,[0x%x]",0
  1647 000007D7 00                 
  1648 000007E1 415800                  .ax db "AX",0
  1649 000007E4 414C00                  .al db "AL",0
  1650 000007E7 00                      .data1 db 0
  1651 000007E8 00                      .data2 db 0
  1652                                 [section .text]
  1653                                  .begin
  1654 000009F6 66891425[00000000]      mov [.data1],dx
  1655                                 
  1656 000009FE 48C7C3[00000000]        mov rbx,memAccum
  1657 00000A05 48C7C600000000          mov rsi,0
  1658                                 
  1659 00000A0C 880C25[00000000]        mov [.co],cl
  1660 00000A13 8A2C25[00000000]        mov ch, [.co]
  1661 00000A1A 80E5AC                  and ch, 0AC
  1662                                  .kartojam
  1663 00000A1D 803C3300                cmp byte [rbx+rsi], 0
  1664 00000A21 0F847F000000            je .neradom_baigiam
  1665                                 
  1666 00000A27 3A2C33                  cmp ch,byte [rbx+rsi]
  1667 00000A2A 7404                    je .radom
  1668 00000A2C 4883C607                add rsi, 7
  1669 00000A30 EBE9                    jmp .kartojam
  1670                                  .radom
  1671                                 
  1672 00000A32 48FFC6                  inc rsi
  1673 00000A35 488D1433                lea rdx,[rbx+rsi]
  1674 00000A39 48C7C1[00000000]        mov rcx,.fmt
  1675 00000A40 E8(F6FFFFFF)            call printf
  1676                                 
  1677 00000A45 4831DB                  xor rbx,rbx
  1678 00000A48 4831D2                  xor rdx,rdx
  1679 00000A4B 4831C0                  xor rax,rax
  1680 00000A4E 4D31C0                  xor r8,r8
  1681                                 
  1682 00000A51 48C7C3[00000000]        mov rbx,.al
  1683 00000A58 8A0425[00000000]        mov al,[.co]
  1684 00000A5F A801                    test al,1
  1685 00000A61 7405                    jz .vienasBaitas
  1686 00000A63 48C7C3[00000000]        mov rbx,.ax
  1687                                  .vienasBaitas
  1688                                 
  1689 00000A6A 48C7C1[00000000]        mov rcx, .acumToMem
  1690 00000A71 4889DA                  mov rdx, rbx
  1691 00000A74 4D31C0                  xor r8,r8
  1692 00000A77 66448B0425[00000000]      mov r8w, word [.data1]
  1693 00000A80 A802                    test al,2
  1694 00000A82 7513                    jnz .Toliau
  1695 00000A84 48C7C1[00000000]        mov rcx, .memToAcum
  1696 00000A8B 4831D2                  xor rdx,rdx
  1697 00000A8E 668B1425[00000000]      mov dx, word [.data1]
  1698 00000A96 4989D8                  mov r8, rbx
  1699                                  .Toliau
  1700 00000A99 E8(F6FFFFFF)            call printf
  1701                                 
  1702 00000A9E E84C020000              call procNewLine
  1703                                 
  1704 00000AA3 48C7C002000000          mov rax, 2
  1705 00000AAA EB07                    jmp .baigiam
  1706                                  .neradom_baigiam
  1707                                 
  1708 00000AAC 48C7C000000000          mov rax, 0
  1709 00000AB3 EBFE                    jmp .baigiam
  1710                                  .baigiam
  1711                                 
  1712 00000AB5 4158                    pop r8
  1713                                 %line 1228+0 mnemonics.asm
  1714 00000AB7 5A                      pop rdx
  1715 00000AB8 59                      pop rcx
  1716 00000AB9 5B                      pop rbx
  1717                                 %line 1229+1 mnemonics.asm
  1718 00000ABA 4883C420                add rsp, 20
  1719                                 %line 1229+0 mnemonics.asm
  1720 00000ABE 5D                      pop rbp
  1721                                 %line 1230+1 mnemonics.asm
  1722 00000ABF C3                      ret
  1723                                 
  1724                                 
  1725                                 
  1726                                 
  1727                                 
  1728                                 
  1729                                 
  1730                                 
  1731                                 
  1732                                 
  1733                                 
  1734                                 
  1735                                 procDisasambliuok:
  1736 00000AC0 55                      push rbp
  1737                                 %line 1244+0 mnemonics.asm
  1738 00000AC1 4889E5                  mov rbp, rsp
  1739 00000AC4 4883EC20                sub rsp, 20
  1740                                 %line 1245+1 mnemonics.asm
  1741 00000AC8 50                      push rax
  1742                                 %line 1245+0 mnemonics.asm
  1743 00000AC9 53                      push rbx
  1744 00000ACA 51                      push rcx
  1745 00000ACB 52                      push rdx
  1746 00000ACC 4150                    push r8
  1747                                 %line 1246+1 mnemonics.asm
  1748 00000ACE EBFE                    jmp .begin
  1749                                 [section .data]
  1750 000007E9 253038782000            .fmtAdresas db "%08x ",0
  1751 000007EF 253031364936347820-     .fmtBaitai db "%016I64x ",0
  1752 000007EF 00                 
  1753 000007F9 6462202578200A00        .fmtDB db "db %x ",10,0
  1754 00000801 0000000000000000        .adresas dq 0
  1755 00000809 0000000000000000        .indexas dq 0
  1756 00000811 0000000000000000        .visoSkaityti dq 0
  1757                                 [section .text]
  1758                                  .begin
  1759 00000AD0 48891425[00000000]      mov [.adresas], rdx
  1760 00000AD8 48890C25[00000000]      mov [.visoSkaityti], rcx
  1761 00000AE0 C70425[00000000]00-     mov [.indexas], dword 0000
  1762 00000AE0 000000             
  1763                                 .read_byte
  1764 00000AEB 4831D2                  xor rdx,rdx
  1765 00000AEE 4831C9                  xor rcx,rcx
  1766                                 
  1767                                 
  1768 00000AF1 48C7C1[00000000]        mov rcx,.fmtAdresas
  1769 00000AF8 488B1425[00000000]      mov rdx, [.indexas]
  1770 00000B00 50                      push rax
  1771                                 %line 1266+0 mnemonics.asm
  1772 00000B01 53                      push rbx
  1773 00000B02 51                      push rcx
  1774 00000B03 52                      push rdx
  1775 00000B04 4150                    push r8
  1776 00000B06 E8(F6FFFFFF)            call printf
  1777 00000B0B 4158                    pop r8
  1778 00000B0D 5A                      pop rdx
  1779 00000B0E 59                      pop rcx
  1780 00000B0F 5B                      pop rbx
  1781 00000B10 58                      pop rax
  1782                                 %line 1267+1 mnemonics.asm
  1783                                 
  1784                                 
  1785 00000B11 48C7C1[00000000]        mov rcx,.fmtBaitai
  1786 00000B18 488B0425[00000000]      mov rax, [.adresas]
  1787 00000B20 4831D2                  xor rdx,rdx
  1788 00000B23 488B10                  mov rdx, [rax]
  1789 00000B26 50                      push rax
  1790                                 %line 1273+0 mnemonics.asm
  1791 00000B27 53                      push rbx
  1792 00000B28 51                      push rcx
  1793 00000B29 52                      push rdx
  1794 00000B2A 4150                    push r8
  1795 00000B2C E8(F6FFFFFF)            call printf
  1796 00000B31 4158                    pop r8
  1797 00000B33 5A                      pop rdx
  1798 00000B34 59                      pop rcx
  1799 00000B35 5B                      pop rbx
  1800 00000B36 58                      pop rax
  1801                                 %line 1274+1 mnemonics.asm
  1802                                 
  1803                                 
  1804                                 
  1805                                 
  1806 00000B37 488B2C25[00000000]      mov rbp,[.adresas]
  1807 00000B3F 4831C9                  xor rcx,rcx
  1808 00000B42 8A4D00                  mov cl, byte [rbp]
  1809 00000B45 E85CF7FFFF              call procPrintop1byte
  1810                                 
  1811 00000B4A 3C00                    cmp al,0
  1812 00000B4C 0F8F6A010000            jg .radom
  1813                                 
  1814                                 
  1815                                 
  1816                                 
  1817 00000B52 488B2C25[00000000]      mov rbp,[.adresas]
  1818 00000B5A 8A4D00                  mov cl, byte [rbp]
  1819 00000B5D E898F7FFFF              call procPrintop1byteReg
  1820                                 
  1821 00000B62 3C00                    cmp al,0
  1822 00000B64 0F8F52010000            jg .radom
  1823                                 
  1824                                 
  1825                                 
  1826                                 
  1827                                 
  1828 00000B6A 488B2C25[00000000]      mov rbp,[.adresas]
  1829 00000B72 8A4D00                  mov cl, byte [rbp]
  1830 00000B75 8A6D01                  mov ch, byte [rbp+1]
  1831 00000B78 E803F8FFFF              call procPrintOp1byte1data
  1832                                 
  1833 00000B7D 3C00                    cmp al,0
  1834 00000B7F 0F8F37010000            jg .radom
  1835                                 
  1836                                 
  1837                                 
  1838                                 
  1839                                 
  1840                                 
  1841                                 
  1842 00000B85 488B2C25[00000000]      mov rbp,[.adresas]
  1843 00000B8D 8A4D00                  mov cl, byte [rbp]
  1844 00000B90 8A6D01                  mov ch, byte [rbp+1]
  1845 00000B93 8A5502                  mov dl, byte [rbp+2]
  1846 00000B96 8A7503                  mov dh, byte [rbp+3]
  1847 00000B99 E860F8FFFF              call procPrintop2byteModRegRm
  1848                                 
  1849 00000B9E 3C00                    cmp al,0
  1850 00000BA0 0F8F16010000            jg .radom
  1851                                 
  1852                                 
  1853                                 
  1854                                 
  1855                                 
  1856                                 
  1857                                 
  1858 00000BA6 488B2C25[00000000]      mov rbp,[.adresas]
  1859 00000BAE 8A4D00                  mov cl, byte [rbp]
  1860 00000BB1 8A6D01                  mov ch, byte [rbp+1]
  1861 00000BB4 8A5502                  mov dl, byte [rbp+2]
  1862 00000BB7 8A7503                  mov dh, byte [rbp+3]
  1863 00000BBA E8F3F8FFFF              call procPrintop2byteModRm
  1864                                 
  1865 00000BBF 3C00                    cmp al,0
  1866 00000BC1 0F8FF5000000            jg .radom
  1867                                 
  1868                                 
  1869                                 
  1870                                 
  1871                                 
  1872                                 
  1873                                 
  1874                                 
  1875                                 
  1876 00000BC7 488B2C25[00000000]      mov rbp,[.adresas]
  1877 00000BCF 8A4D00                  mov cl, byte [rbp]
  1878 00000BD2 8A6D01                  mov ch, byte [rbp+1]
  1879 00000BD5 8A5502                  mov dl, byte [rbp+2]
  1880 00000BD8 8A7503                  mov dh, byte [rbp+3]
  1881 00000BDB 8A5D04                  mov bl, byte [rbp+4]
  1882 00000BDE 8A7D05                  mov bh, byte [rbp+5]
  1883 00000BE1 E8E0F9FFFF              call procPrintop2byteModRmImmediate
  1884                                 
  1885 00000BE6 3C00                    cmp al,0
  1886 00000BE8 0F8FCE000000            jg .radom
  1887                                 
  1888                                 
  1889                                 
  1890                                 
  1891                                 
  1892                                 
  1893 00000BEE 488B2C25[00000000]      mov rbp,[.adresas]
  1894 00000BF6 8A4D00                  mov cl, byte [rbp]
  1895 00000BF9 8A6D01                  mov ch, byte [rbp+1]
  1896 00000BFC 8A5502                  mov dl, byte [rbp+2]
  1897 00000BFF E8F1FAFFFF              call procPrintImmediateAccumulator
  1898                                 
  1899 00000C04 3C00                    cmp al,0
  1900 00000C06 0F8FB0000000            jg .radom
  1901                                 
  1902                                 
  1903                                 
  1904                                 
  1905                                 
  1906                                 
  1907 00000C0C 488B2C25[00000000]      mov rbp,[.adresas]
  1908 00000C14 8A4D00                  mov cl, byte [rbp]
  1909 00000C17 8A6D01                  mov ch, byte [rbp+1]
  1910 00000C1A 8A5502                  mov dl, byte [rbp+2]
  1911 00000C1D E89EFBFFFF              call procPrintOp1byte2data
  1912                                 
  1913 00000C22 3C00                    cmp al,0
  1914 00000C24 0F8F92000000            jg .radom
  1915                                 
  1916                                 
  1917                                 
  1918                                 
  1919                                 
  1920                                 
  1921                                 
  1922                                 
  1923 00000C2A 488B2C25[00000000]      mov rbp,[.adresas]
  1924 00000C32 8A4D00                  mov cl, byte [rbp]
  1925 00000C35 8A5501                  mov dl, byte [rbp+1]
  1926 00000C38 8A7502                  mov dh, byte [rbp+2]
  1927 00000C3B 8A5D03                  mov bl, byte [rbp+3]
  1928 00000C3E 8A7D04                  mov bh, byte [rbp+4]
  1929 00000C41 E81BFCFFFF              call procPrintOp1byte4data
  1930                                 
  1931 00000C46 3C00                    cmp al,0
  1932 00000C48 7F76                    jg .radom
  1933                                 
  1934                                 
  1935                                 
  1936                                 
  1937                                 
  1938                                 
  1939 00000C4A 488B2C25[00000000]      mov rbp,[.adresas]
  1940 00000C52 8A4D00                  mov cl, byte [rbp]
  1941 00000C55 8A5501                  mov dl, byte [rbp+1]
  1942 00000C58 8A7502                  mov dh, byte [rbp+2]
  1943 00000C5B E8A6FCFFFF              call procPrintImmediateToRegister
  1944                                 
  1945 00000C60 3C00                    cmp al,0
  1946 00000C62 7F5C                    jg .radom
  1947                                 
  1948                                 
  1949                                 
  1950                                 
  1951                                 
  1952                                 
  1953 00000C64 488B2C25[00000000]      mov rbp,[.adresas]
  1954 00000C6C 8A4D00                  mov cl, byte [rbp]
  1955 00000C6F 8A5501                  mov dl, byte [rbp+1]
  1956 00000C72 8A7502                  mov dh, byte [rbp+2]
  1957 00000C75 E868FDFFFF              call procPrintMemAccum
  1958                                 
  1959 00000C7A 3C00                    cmp al,0
  1960 00000C7C 7F42                    jg .radom
  1961                                 
  1962                                 
  1963 00000C7E 488B1C25[00000000]      mov rbx,[.adresas]
  1964 00000C86 48C7C1[00000000]        mov rcx, .fmtDB
  1965 00000C8D 4831D2                  xor rdx,rdx
  1966 00000C90 8A13                    mov dl, byte [rbx]
  1967 00000C92 E8(F6FFFFFF)            call printf
  1968                                 
  1969                                 
  1970                                 
  1971 00000C97 48FF0425[00000000]      inc qword [.indexas]
  1972 00000C9F 48FF0425[00000000]      inc qword [.adresas]
  1973 00000CA7 4831C0                  xor rax,rax
  1974 00000CAA 488B0C25[00000000]      mov rcx, [.indexas]
  1975 00000CB2 483B0C25[00000000]      cmp rcx, [.visoSkaityti]
  1976 00000CBA 0F8E25FEFFFF            jle .read_byte
  1977 00000CC0 EB24                    jmp .pabaiga
  1978                                 
  1979                                  .radom
  1980                                 
  1981                                 
  1982                                 
  1983 00000CC2 48010425[00000000]      add [.indexas], rax
  1984 00000CCA 48010425[00000000]      add [.adresas], rax
  1985 00000CD2 488B0C25[00000000]      mov rcx, [.indexas]
  1986 00000CDA 483B0C25[00000000]      cmp rcx, [.visoSkaityti]
  1987 00000CE2 0F8EFDFDFFFF            jle .read_byte
  1988                                 
  1989                                  .pabaiga
  1990 00000CE8 4158                    pop r8
  1991                                 %line 1462+0 mnemonics.asm
  1992 00000CEA 5A                      pop rdx
  1993 00000CEB 59                      pop rcx
  1994 00000CEC 5B                      pop rbx
  1995 00000CED 58                      pop rax
  1996                                 %line 1463+1 mnemonics.asm
  1997 00000CEE 4883C420                add rsp, 20
  1998                                 %line 1463+0 mnemonics.asm
  1999 00000CF2 5D                      pop rbp
  2000                                 %line 1464+1 mnemonics.asm
  2001 00000CF3 C3                      ret
  2002                                 
  2003                                 
  2004                                 
  2005                                 %line 1+1 nasmlibc.asm
  2006                                 
  2007                                 [extern puts]
  2008                                 [extern printf]
  2009                                 [extern gets]
  2010                                 
  2011                                 [extern fopen]
  2012                                 [extern fclose]
  2013                                 [extern fseek]
  2014                                 [extern ftell]
  2015                                 [extern fread]
  2016                                 
  2017                                 [extern putchar]
  2018                                 [extern malloc]
  2019                                 
  2020                                 [section .text]
  2021                                 
  2022                                 
  2023                                 procNewLine:
  2024 00000CF4 55                      push rbp
  2025                                 %line 19+0 nasmlibc.asm
  2026 00000CF5 4889E5                  mov rbp, rsp
  2027 00000CF8 4883EC20                sub rsp, 20
  2028                                 %line 20+1 nasmlibc.asm
  2029 00000CFC 50                      push rax
  2030                                 %line 20+0 nasmlibc.asm
  2031 00000CFD 53                      push rbx
  2032 00000CFE 51                      push rcx
  2033 00000CFF 52                      push rdx
  2034 00000D00 4150                    push r8
  2035                                 %line 21+1 nasmlibc.asm
  2036                                 
  2037 00000D02 EBFE                    jmp .begin
  2038                                 [section .data]
  2039 00000819 00                      .localData db 0x00
  2040                                 [section .text]
  2041                                 
  2042                                  .begin
  2043 00000D04 48C7C1[00000000]        mov rcx, .localData
  2044 00000D0B E8(F6FFFFFF)            call puts
  2045                                 
  2046 00000D10 4158                    pop r8
  2047                                 %line 31+0 nasmlibc.asm
  2048 00000D12 5A                      pop rdx
  2049 00000D13 59                      pop rcx
  2050 00000D14 5B                      pop rbx
  2051 00000D15 58                      pop rax
  2052                                 %line 32+1 nasmlibc.asm
  2053 00000D16 4883C420                add rsp, 20
  2054                                 %line 32+0 nasmlibc.asm
  2055 00000D1A 5D                      pop rbp
  2056                                 %line 33+1 nasmlibc.asm
  2057 00000D1B C3                      ret
  2058                                 
  2059                                 
  2060                                 
  2061                                 procPrintComma:
  2062 00000D1C 55                      push rbp
  2063                                 %line 38+0 nasmlibc.asm
  2064 00000D1D 4889E5                  mov rbp, rsp
  2065 00000D20 4883EC20                sub rsp, 20
  2066                                 %line 39+1 nasmlibc.asm
  2067 00000D24 50                      push rax
  2068                                 %line 39+0 nasmlibc.asm
  2069 00000D25 53                      push rbx
  2070 00000D26 51                      push rcx
  2071 00000D27 52                      push rdx
  2072 00000D28 4150                    push r8
  2073                                 %line 40+1 nasmlibc.asm
  2074                                 
  2075 00000D2A EBFE                    jmp .begin
  2076                                 [section .data]
  2077 0000081A 2C2000                  .localData db ', ',0x00
  2078                                 [section .text]
  2079                                 
  2080                                  .begin
  2081 00000D2C 48C7C1[00000000]        mov rcx, .localData
  2082 00000D33 E8(F6FFFFFF)            call printf
  2083                                 
  2084 00000D38 4158                    pop r8
  2085                                 %line 50+0 nasmlibc.asm
  2086 00000D3A 5A                      pop rdx
  2087 00000D3B 59                      pop rcx
  2088 00000D3C 5B                      pop rbx
  2089 00000D3D 58                      pop rax
  2090                                 %line 51+1 nasmlibc.asm
  2091 00000D3E 4883C420                add rsp, 20
  2092                                 %line 51+0 nasmlibc.asm
  2093 00000D42 5D                      pop rbp
  2094                                 %line 52+1 nasmlibc.asm
  2095 00000D43 C3                      ret
  2096                                 
  2097                                 
  2098                                 
  2099                                 
  2100                                 procFailoDydis:
  2101 00000D44 55                      push rbp
  2102                                 %line 58+0 nasmlibc.asm
  2103 00000D45 4889E5                  mov rbp, rsp
  2104 00000D48 4883EC20                sub rsp, 20
  2105                                 %line 59+1 nasmlibc.asm
  2106 00000D4C EBFE                    jmp .begin
  2107                                 [section .data]
  2108 0000081D 5B70726F634661696C-     .erNotFound db "[procFailoDydis] failas nerastas.",0
  2109 0000081D 6F44796469735D2066-
  2110 0000081D 61696C6173206E6572-
  2111 0000081D 61737461732E00     
  2112 0000083F 5365656B206B6C6169-     .erSeekError db "Seek klaida.",0
  2113 0000083F 64612E00           
  2114 0000084C 7200                    .fm db "r",0
  2115 0000084E 0000000000000000        .fp dq 0
  2116 00000856 0000000000000000        .fs dq 0
  2117                                 [section .text]
  2118                                  .begin
  2119 00000D4E 48C7C2[00000000]        mov rdx, .fm
  2120 00000D55 E8(F6FFFFFF)            call fopen
  2121 00000D5A 48890425[00000000]      mov [.fp], rax
  2122 00000D62 4883F800                cmp rax, 0
  2123 00000D66 7440                    je .noFile
  2124                                 
  2125 00000D68 488B0C25[00000000]      mov rcx, [.fp]
  2126 00000D70 BA00000000              mov edx, 0
  2127 00000D75 49C7C002000000          mov r8, 2
  2128 00000D7C E8(F6FFFFFF)            call fseek
  2129 00000D81 4809C0                  or rax,rax
  2130 00000D84 7530                    jnz .seekError
  2131                                 
  2132 00000D86 488B0C25[00000000]      mov rcx, [.fp]
  2133 00000D8E E8(F6FFFFFF)            call ftell
  2134 00000D93 48890425[00000000]      mov [.fs], rax
  2135                                 
  2136 00000D9B 488B0C25[00000000]      mov rcx, [.fp]
  2137 00000DA3 E8(F6FFFFFF)            call fclose
  2138 00000DA8 EB1A                    jmp .theEnd
  2139                                  .noFile
  2140 00000DAA 48C7C1[00000000]        mov rcx,.erNotFound
  2141 00000DB1 E8(F6FFFFFF)            call puts
  2142 00000DB6 EB0C                    jmp .theEnd
  2143                                  .seekError
  2144 00000DB8 48C7C1[00000000]        mov rcx,.erSeekError
  2145 00000DBF E8(F6FFFFFF)            call puts
  2146 00000DC4 EBFE                    jmp .theEnd
  2147                                  .theEnd
  2148 00000DC6 488B0425[00000000]      mov rax, [.fs]
  2149                                 
  2150 00000DCE 4883C420                add rsp, 20
  2151                                 %line 99+0 nasmlibc.asm
  2152 00000DD2 5D                      pop rbp
  2153                                 %line 100+1 nasmlibc.asm
  2154 00000DD3 C3                      ret
  2155                                 
  2156                                 
  2157                                 
  2158                                 procPrintRAX:
  2159 00000DD4 55                      push rbp
  2160                                 %line 105+0 nasmlibc.asm
  2161 00000DD5 4889E5                  mov rbp, rsp
  2162 00000DD8 4883EC20                sub rsp, 20
  2163                                 %line 106+1 nasmlibc.asm
  2164                                 
  2165 00000DDC EBFE                    jmp .begin
  2166                                 [section .data]
  2167 0000085E 5241582D3078253031-     .fmt db "RAX-0x%016llx",10, 0
  2168 0000085E 366C6C780A00       
  2169                                 [section .text]
  2170                                  .begin
  2171 00000DDE 48C7C1[00000000]        mov rcx,.fmt
  2172 00000DE5 4889C2                  mov rdx,rax
  2173 00000DE8 E8(F6FFFFFF)            call printf
  2174                                 
  2175 00000DED 4883C420                add rsp, 20
  2176                                 %line 116+0 nasmlibc.asm
  2177 00000DF1 5D                      pop rbp
  2178                                 %line 117+1 nasmlibc.asm
  2179 00000DF2 C3                      ret
  2180                                 
  2181                                 
  2182                                 procPrintRCX:
  2183 00000DF3 55                      push rbp
  2184                                 %line 121+0 nasmlibc.asm
  2185 00000DF4 4889E5                  mov rbp, rsp
  2186 00000DF7 4883EC20                sub rsp, 20
  2187                                 %line 122+1 nasmlibc.asm
  2188 00000DFB EBFE                    jmp .begin
  2189                                 [section .data]
  2190 0000086D 5243582D3078253031-     .fmt db "RCX-0x%016llx",10, 0
  2191 0000086D 366C6C780A00       
  2192                                 [section .text]
  2193                                  .begin
  2194 00000DFD 4889CA                  mov rdx,rcx
  2195 00000E00 48C7C1[00000000]        mov rcx,.fmt
  2196 00000E07 E8(F6FFFFFF)            call printf
  2197 00000E0C 4883C420                add rsp, 20
  2198                                 %line 130+0 nasmlibc.asm
  2199 00000E10 5D                      pop rbp
  2200                                 %line 131+1 nasmlibc.asm
  2201 00000E11 C3                      ret
  2202                                 
  2203                                 
  2204                                 procPrintRDX:
  2205 00000E12 55                      push rbp
  2206                                 %line 135+0 nasmlibc.asm
  2207 00000E13 4889E5                  mov rbp, rsp
  2208 00000E16 4883EC20                sub rsp, 20
  2209                                 %line 136+1 nasmlibc.asm
  2210 00000E1A EBFE                    jmp .begin
  2211                                 [section .data]
  2212 0000087C 5244582D3078253031-     .fmt db "RDX-0x%016llx",10, 0
  2213 0000087C 366C6C780A00       
  2214                                 [section .text]
  2215                                  .begin
  2216 00000E1C 4889D0                  mov rax,rdx
  2217 00000E1F 48C7C1[00000000]        mov rcx,.fmt
  2218 00000E26 4889C2                  mov rdx,rax
  2219 00000E29 E8(F6FFFFFF)            call printf
  2220                                 
  2221 00000E2E 4883C420                add rsp, 20
  2222                                 %line 146+0 nasmlibc.asm
  2223 00000E32 5D                      pop rbp
  2224                                 %line 147+1 nasmlibc.asm
  2225 00000E33 C3                      ret
  2226                                 
  2227                                 
  2228                                 
  2229                                 
  2230                                 
  2231                                 procPrintBufferBytes:
  2232 00000E34 55                      push rbp
  2233                                 %line 154+0 nasmlibc.asm
  2234 00000E35 4889E5                  mov rbp, rsp
  2235 00000E38 4883EC20                sub rsp, 20
  2236                                 %line 155+1 nasmlibc.asm
  2237 00000E3C 50                      push rax
  2238                                 %line 155+0 nasmlibc.asm
  2239 00000E3D 53                      push rbx
  2240 00000E3E 51                      push rcx
  2241 00000E3F 52                      push rdx
  2242 00000E40 4150                    push r8
  2243                                 %line 156+1 nasmlibc.asm
  2244 00000E42 EBFE                    jmp .begin
  2245                                 [section .data]
  2246 0000088B 25782000                .fmt db "%x ",0
  2247                                 [section .text]
  2248                                  .begin
  2249 00000E44 4889D6                  mov rsi, rdx
  2250 00000E47 FC                      cld
  2251                                  .read_byte
  2252 00000E48 AC                      lodsb
  2253 00000E49 4889CB                  mov rbx, rcx
  2254 00000E4C 4889C1                  mov rcx, rax
  2255                                 
  2256 00000E4F 48C7C1[00000000]        mov rcx,.fmt
  2257 00000E56 4889C2                  mov rdx,rax
  2258 00000E59 E8(F6FFFFFF)            call printf
  2259                                 
  2260 00000E5E 4889D9                  mov rcx, rbx
  2261 00000E61 E2E3                    loop .read_byte
  2262                                 
  2263 00000E63 4158                    pop r8
  2264                                 %line 175+0 nasmlibc.asm
  2265 00000E65 5A                      pop rdx
  2266 00000E66 59                      pop rcx
  2267 00000E67 5B                      pop rbx
  2268 00000E68 58                      pop rax
  2269                                 %line 176+1 nasmlibc.asm
  2270 00000E69 4883C420                add rsp, 20
  2271                                 %line 176+0 nasmlibc.asm
  2272 00000E6D 5D                      pop rbp
  2273                                 %line 177+1 nasmlibc.asm
  2274 00000E6E C3                      ret
  2275                                 
  2276                                 
  2277                                 
  2278                                 
  2279                                 
  2280                                 procPrintBufferChars:
  2281 00000E6F 55                      push rbp
  2282                                 %line 184+0 nasmlibc.asm
  2283 00000E70 4889E5                  mov rbp, rsp
  2284 00000E73 4883EC20                sub rsp, 20
  2285                                 %line 185+1 nasmlibc.asm
  2286 00000E77 50                      push rax
  2287                                 %line 185+0 nasmlibc.asm
  2288 00000E78 53                      push rbx
  2289 00000E79 51                      push rcx
  2290 00000E7A 52                      push rdx
  2291 00000E7B 4150                    push r8
  2292                                 %line 186+1 nasmlibc.asm
  2293 00000E7D EBFE                    jmp .begin
  2294                                  .begin
  2295 00000E7F 4889D6                  mov rsi, rdx
  2296 00000E82 FC                      cld
  2297                                  .read_byte
  2298 00000E83 AC                      lodsb
  2299 00000E84 4889CB                  mov rbx, rcx
  2300 00000E87 4889C1                  mov rcx, rax
  2301                                 
  2302 00000E8A 4889C1                  mov rcx, rax
  2303 00000E8D E8(F6FFFFFF)            call putchar
  2304                                 
  2305 00000E92 4889D9                  mov rcx, rbx
  2306 00000E95 E2EA                    loop .read_byte
  2307                                 
  2308 00000E97 4158                    pop r8
  2309                                 %line 201+0 nasmlibc.asm
  2310 00000E99 5A                      pop rdx
  2311 00000E9A 59                      pop rcx
  2312 00000E9B 5B                      pop rbx
  2313 00000E9C 58                      pop rax
  2314                                 %line 202+1 nasmlibc.asm
  2315 00000E9D 4883C420                add rsp, 20
  2316                                 %line 202+0 nasmlibc.asm
  2317 00000EA1 5D                      pop rbp
  2318                                 %line 203+1 nasmlibc.asm
  2319 00000EA2 C3                      ret
  2320                                 
  2321                                 
  2322                                 
  2323                                 
  2324                                 
  2325                                 procPrintBuffer:
  2326 00000EA3 55                      push rbp
  2327                                 %line 210+0 nasmlibc.asm
  2328 00000EA4 4889E5                  mov rbp, rsp
  2329 00000EA7 4883EC20                sub rsp, 20
  2330                                 %line 211+1 nasmlibc.asm
  2331 00000EAB 51                      push rcx
  2332 00000EAC 52                      push rdx
  2333 00000EAD E87DFFFFFF              call procPrintBufferBytes
  2334 00000EB2 5A                      pop rdx
  2335 00000EB3 59                      pop rcx
  2336 00000EB4 E8B1FFFFFF              call procPrintBufferChars
  2337 00000EB9 4883C420                add rsp, 20
  2338                                 %line 217+0 nasmlibc.asm
  2339 00000EBD 5D                      pop rbp
  2340                                 %line 218+1 nasmlibc.asm
  2341 00000EBE C3                      ret
  2342                                 
  2343                                 
  2344                                 
  2345                                 
  2346                                 
  2347                                 
  2348                                 
  2349                                 
  2350                                 
  2351                                 procGetMaskedValue:
  2352 00000EBF 55                      push rbp
  2353                                 %line 229+0 nasmlibc.asm
  2354 00000EC0 4889E5                  mov rbp, rsp
  2355 00000EC3 4883EC20                sub rsp, 20
  2356                                 %line 230+1 nasmlibc.asm
  2357 00000EC7 4889CB                  mov rbx, rcx
  2358 00000ECA 4821D3                  and rbx, rdx
  2359 00000ECD 48C7C100000000          mov rcx, 0
  2360                                  .suk_dar
  2361 00000ED4 F8                      clc
  2362 00000ED5 48FFC1                  inc rcx
  2363 00000ED8 48D1DA                  rcr rdx, 1
  2364 00000EDB 73F5                    jnc .suk_dar
  2365 00000EDD 48FFC9                  dec rcx
  2366 00000EE0 48D3EB                  shr rbx,cl
  2367 00000EE3 4889D8                  mov rax,rbx
  2368 00000EE6 4883C420                add rsp, 20
  2369                                 %line 241+0 nasmlibc.asm
  2370 00000EEA 5D                      pop rbp
  2371                                 %line 242+1 nasmlibc.asm
  2372 00000EEB C3                      ret
  2373                                 
  2374                                 %line 163+1 disasm64.asm
  2375                                 
  2376                                 
  2377                                 
  2378                                 
  2379                                 
